	.file	"libexo.c"
	.text
.Ltext0:
	.section	.rodata.str1.1,"aMS",@progbits,1
.LC0:
	.string	"\\n"
.LC1:
	.string	"\\\\"
.LC2:
	.string	"\\'"
.LC3:
	.string	"\\t"
.LC4:
	.string	"\\r"
.LC5:
	.string	"\\f"
.LC6:
	.string	"\\b"
.LC7:
	.string	"\\a"
.LC8:
	.string	"\\v"
.LC9:
	.string	"\\x%02x"
	.text
	.p2align 4
	.type	print_char, @function
print_char:
.LVL0:
.LFB54:
	.file 1 "libexo.c"
	.loc 1 236 1 view -0
	.cfi_startproc
	.loc 1 237 3 view .LVU1
	.loc 1 236 1 is_stmt 0 view .LVU2
	pushq	%r13
	.cfi_def_cfa_offset 16
	.cfi_offset 13, -16
	movq	%rsi, %r13
	pushq	%r12
	.cfi_def_cfa_offset 24
	.cfi_offset 12, -24
	pushq	%rbx
	.cfi_def_cfa_offset 32
	.cfi_offset 3, -32
	.loc 1 236 1 view .LVU3
	movzbl	%dil, %ebx
	.loc 1 237 3 view .LVU4
	cmpb	$39, %dil
	ja	.L2
	cmpb	$6, %dil
	jbe	.L3
	leal	-7(%rdi), %eax
	cmpb	$32, %al
	ja	.L3
	leaq	.L5(%rip), %rdx
	movzbl	%al, %eax
	movslq	(%rdx,%rax,4), %rax
	addq	%rdx, %rax
	notrack jmp	*%rax
	.section	.rodata
	.align 4
	.align 4
.L5:
	.long	.L12-.L5
	.long	.L11-.L5
	.long	.L10-.L5
	.long	.L9-.L5
	.long	.L8-.L5
	.long	.L7-.L5
	.long	.L6-.L5
	.long	.L3-.L5
	.long	.L3-.L5
	.long	.L3-.L5
	.long	.L3-.L5
	.long	.L3-.L5
	.long	.L3-.L5
	.long	.L3-.L5
	.long	.L3-.L5
	.long	.L3-.L5
	.long	.L3-.L5
	.long	.L3-.L5
	.long	.L3-.L5
	.long	.L3-.L5
	.long	.L3-.L5
	.long	.L3-.L5
	.long	.L3-.L5
	.long	.L3-.L5
	.long	.L3-.L5
	.long	.L3-.L5
	.long	.L3-.L5
	.long	.L3-.L5
	.long	.L3-.L5
	.long	.L3-.L5
	.long	.L3-.L5
	.long	.L3-.L5
	.long	.L4-.L5
	.text
	.p2align 4,,10
	.p2align 3
.L2:
	cmpb	$92, %dil
	jne	.L3
	.loc 1 244 7 is_stmt 1 view .LVU5
.LVL1:
.LBB137:
.LBI137:
	.file 2 "/usr/include/x86_64-linux-gnu/bits/stdio2.h"
	.loc 2 98 1 view .LVU6
.LBB138:
	.loc 2 100 3 view .LVU7
.LBE138:
.LBE137:
	.loc 1 281 1 is_stmt 0 view .LVU8
	popq	%rbx
	.cfi_remember_state
	.cfi_def_cfa_offset 24
.LBB142:
.LBB139:
	.loc 2 100 10 view .LVU9
	movq	%rsi, %rcx
.LBE139:
.LBE142:
	.loc 1 281 1 view .LVU10
	popq	%r12
	.cfi_def_cfa_offset 16
.LBB143:
.LBB140:
	.loc 2 100 10 view .LVU11
	movl	$2, %edx
	movl	$1, %esi
.LVL2:
	.loc 2 100 10 view .LVU12
	leaq	.LC1(%rip), %rdi
.LVL3:
	.loc 2 100 10 view .LVU13
.LBE140:
.LBE143:
	.loc 1 281 1 view .LVU14
	popq	%r13
	.cfi_def_cfa_offset 8
.LVL4:
.LBB144:
.LBB141:
	.loc 2 100 10 view .LVU15
	jmp	fwrite@PLT
.LVL5:
.L4:
	.cfi_restore_state
	.loc 2 100 10 view .LVU16
.LBE141:
.LBE144:
	.loc 1 248 7 is_stmt 1 view .LVU17
.LBB145:
.LBI145:
	.loc 2 98 1 view .LVU18
.LBB146:
	.loc 2 100 3 view .LVU19
.LBE146:
.LBE145:
	.loc 1 281 1 is_stmt 0 view .LVU20
	popq	%rbx
	.cfi_remember_state
	.cfi_def_cfa_offset 24
.LBB150:
.LBB147:
	.loc 2 100 10 view .LVU21
	movq	%rsi, %rcx
.LBE147:
.LBE150:
	.loc 1 281 1 view .LVU22
	popq	%r12
	.cfi_def_cfa_offset 16
.LBB151:
.LBB148:
	.loc 2 100 10 view .LVU23
	movl	$2, %edx
	movl	$1, %esi
.LVL6:
	.loc 2 100 10 view .LVU24
	leaq	.LC2(%rip), %rdi
.LVL7:
	.loc 2 100 10 view .LVU25
.LBE148:
.LBE151:
	.loc 1 281 1 view .LVU26
	popq	%r13
	.cfi_def_cfa_offset 8
.LVL8:
.LBB152:
.LBB149:
	.loc 2 100 10 view .LVU27
	jmp	fwrite@PLT
.LVL9:
.L3:
	.cfi_restore_state
	.loc 2 100 10 view .LVU28
.LBE149:
.LBE152:
	.loc 1 237 3 view .LVU29
	movzbl	%dil, %r12d
	.loc 1 276 7 is_stmt 1 view .LVU30
	.loc 1 276 13 is_stmt 0 view .LVU31
	call	__ctype_b_loc@PLT
.LVL10:
	.loc 1 276 30 view .LVU32
	movq	(%rax), %rax
	.loc 1 276 10 view .LVU33
	testb	$64, 1(%rax,%rbx,2)
	je	.L14
	.loc 1 277 2 is_stmt 1 view .LVU34
.LVL11:
.LBB153:
.LBI153:
	.loc 2 98 1 view .LVU35
.LBB154:
	.loc 2 100 3 view .LVU36
.LBE154:
.LBE153:
	.loc 1 281 1 is_stmt 0 view .LVU37
	popq	%rbx
	.cfi_remember_state
	.cfi_def_cfa_offset 24
.LBB157:
.LBB155:
	.loc 2 100 10 view .LVU38
	movq	%r13, %rsi
	movl	%r12d, %edi
.LBE155:
.LBE157:
	.loc 1 281 1 view .LVU39
	popq	%r12
	.cfi_def_cfa_offset 16
.LVL12:
	.loc 1 281 1 view .LVU40
	popq	%r13
	.cfi_def_cfa_offset 8
.LVL13:
.LBB158:
.LBB156:
	.loc 2 100 10 view .LVU41
	jmp	fputc@PLT
.LVL14:
.L12:
	.cfi_restore_state
	.loc 2 100 10 view .LVU42
.LBE156:
.LBE158:
	.loc 1 268 7 is_stmt 1 view .LVU43
.LBB159:
.LBI159:
	.loc 2 98 1 view .LVU44
.LBB160:
	.loc 2 100 3 view .LVU45
.LBE160:
.LBE159:
	.loc 1 281 1 is_stmt 0 view .LVU46
	popq	%rbx
	.cfi_remember_state
	.cfi_def_cfa_offset 24
.LBB164:
.LBB161:
	.loc 2 100 10 view .LVU47
	movq	%rsi, %rcx
.LBE161:
.LBE164:
	.loc 1 281 1 view .LVU48
	popq	%r12
	.cfi_def_cfa_offset 16
.LBB165:
.LBB162:
	.loc 2 100 10 view .LVU49
	movl	$2, %edx
	movl	$1, %esi
.LVL15:
	.loc 2 100 10 view .LVU50
	leaq	.LC7(%rip), %rdi
.LVL16:
	.loc 2 100 10 view .LVU51
.LBE162:
.LBE165:
	.loc 1 281 1 view .LVU52
	popq	%r13
	.cfi_def_cfa_offset 8
.LVL17:
.LBB166:
.LBB163:
	.loc 2 100 10 view .LVU53
	jmp	fwrite@PLT
.LVL18:
.L11:
	.cfi_restore_state
	.loc 2 100 10 view .LVU54
.LBE163:
.LBE166:
	.loc 1 264 7 is_stmt 1 view .LVU55
.LBB167:
.LBI167:
	.loc 2 98 1 view .LVU56
.LBB168:
	.loc 2 100 3 view .LVU57
.LBE168:
.LBE167:
	.loc 1 281 1 is_stmt 0 view .LVU58
	popq	%rbx
	.cfi_remember_state
	.cfi_def_cfa_offset 24
.LBB172:
.LBB169:
	.loc 2 100 10 view .LVU59
	movq	%rsi, %rcx
.LBE169:
.LBE172:
	.loc 1 281 1 view .LVU60
	popq	%r12
	.cfi_def_cfa_offset 16
.LBB173:
.LBB170:
	.loc 2 100 10 view .LVU61
	movl	$2, %edx
	movl	$1, %esi
.LVL19:
	.loc 2 100 10 view .LVU62
	leaq	.LC6(%rip), %rdi
.LVL20:
	.loc 2 100 10 view .LVU63
.LBE170:
.LBE173:
	.loc 1 281 1 view .LVU64
	popq	%r13
	.cfi_def_cfa_offset 8
.LVL21:
.LBB174:
.LBB171:
	.loc 2 100 10 view .LVU65
	jmp	fwrite@PLT
.LVL22:
.L10:
	.cfi_restore_state
	.loc 2 100 10 view .LVU66
.LBE171:
.LBE174:
	.loc 1 252 7 is_stmt 1 view .LVU67
.LBB175:
.LBI175:
	.loc 2 98 1 view .LVU68
.LBB176:
	.loc 2 100 3 view .LVU69
.LBE176:
.LBE175:
	.loc 1 281 1 is_stmt 0 view .LVU70
	popq	%rbx
	.cfi_remember_state
	.cfi_def_cfa_offset 24
.LBB180:
.LBB177:
	.loc 2 100 10 view .LVU71
	movq	%rsi, %rcx
.LBE177:
.LBE180:
	.loc 1 281 1 view .LVU72
	popq	%r12
	.cfi_def_cfa_offset 16
.LBB181:
.LBB178:
	.loc 2 100 10 view .LVU73
	movl	$2, %edx
	movl	$1, %esi
.LVL23:
	.loc 2 100 10 view .LVU74
	leaq	.LC3(%rip), %rdi
.LVL24:
	.loc 2 100 10 view .LVU75
.LBE178:
.LBE181:
	.loc 1 281 1 view .LVU76
	popq	%r13
	.cfi_def_cfa_offset 8
.LVL25:
.LBB182:
.LBB179:
	.loc 2 100 10 view .LVU77
	jmp	fwrite@PLT
.LVL26:
.L9:
	.cfi_restore_state
	.loc 2 100 10 view .LVU78
.LBE179:
.LBE182:
	.loc 1 240 7 is_stmt 1 view .LVU79
.LBB183:
.LBI183:
	.loc 2 98 1 view .LVU80
.LBB184:
	.loc 2 100 3 view .LVU81
.LBE184:
.LBE183:
	.loc 1 281 1 is_stmt 0 view .LVU82
	popq	%rbx
	.cfi_remember_state
	.cfi_def_cfa_offset 24
.LBB188:
.LBB185:
	.loc 2 100 10 view .LVU83
	movq	%rsi, %rcx
.LBE185:
.LBE188:
	.loc 1 281 1 view .LVU84
	popq	%r12
	.cfi_def_cfa_offset 16
.LBB189:
.LBB186:
	.loc 2 100 10 view .LVU85
	movl	$2, %edx
	movl	$1, %esi
.LVL27:
	.loc 2 100 10 view .LVU86
	leaq	.LC0(%rip), %rdi
.LVL28:
	.loc 2 100 10 view .LVU87
.LBE186:
.LBE189:
	.loc 1 281 1 view .LVU88
	popq	%r13
	.cfi_def_cfa_offset 8
.LVL29:
.LBB190:
.LBB187:
	.loc 2 100 10 view .LVU89
	jmp	fwrite@PLT
.LVL30:
.L8:
	.cfi_restore_state
	.loc 2 100 10 view .LVU90
.LBE187:
.LBE190:
	.loc 1 272 7 is_stmt 1 view .LVU91
.LBB191:
.LBI191:
	.loc 2 98 1 view .LVU92
.LBB192:
	.loc 2 100 3 view .LVU93
.LBE192:
.LBE191:
	.loc 1 281 1 is_stmt 0 view .LVU94
	popq	%rbx
	.cfi_remember_state
	.cfi_def_cfa_offset 24
.LBB196:
.LBB193:
	.loc 2 100 10 view .LVU95
	movq	%rsi, %rcx
.LBE193:
.LBE196:
	.loc 1 281 1 view .LVU96
	popq	%r12
	.cfi_def_cfa_offset 16
.LBB197:
.LBB194:
	.loc 2 100 10 view .LVU97
	movl	$2, %edx
	movl	$1, %esi
.LVL31:
	.loc 2 100 10 view .LVU98
	leaq	.LC8(%rip), %rdi
.LVL32:
	.loc 2 100 10 view .LVU99
.LBE194:
.LBE197:
	.loc 1 281 1 view .LVU100
	popq	%r13
	.cfi_def_cfa_offset 8
.LVL33:
.LBB198:
.LBB195:
	.loc 2 100 10 view .LVU101
	jmp	fwrite@PLT
.LVL34:
.L7:
	.cfi_restore_state
	.loc 2 100 10 view .LVU102
.LBE195:
.LBE198:
	.loc 1 260 7 is_stmt 1 view .LVU103
.LBB199:
.LBI199:
	.loc 2 98 1 view .LVU104
.LBB200:
	.loc 2 100 3 view .LVU105
.LBE200:
.LBE199:
	.loc 1 281 1 is_stmt 0 view .LVU106
	popq	%rbx
	.cfi_remember_state
	.cfi_def_cfa_offset 24
.LBB204:
.LBB201:
	.loc 2 100 10 view .LVU107
	movq	%rsi, %rcx
.LBE201:
.LBE204:
	.loc 1 281 1 view .LVU108
	popq	%r12
	.cfi_def_cfa_offset 16
.LBB205:
.LBB202:
	.loc 2 100 10 view .LVU109
	movl	$2, %edx
	movl	$1, %esi
.LVL35:
	.loc 2 100 10 view .LVU110
	leaq	.LC5(%rip), %rdi
.LVL36:
	.loc 2 100 10 view .LVU111
.LBE202:
.LBE205:
	.loc 1 281 1 view .LVU112
	popq	%r13
	.cfi_def_cfa_offset 8
.LVL37:
.LBB206:
.LBB203:
	.loc 2 100 10 view .LVU113
	jmp	fwrite@PLT
.LVL38:
.L6:
	.cfi_restore_state
	.loc 2 100 10 view .LVU114
.LBE203:
.LBE206:
	.loc 1 256 7 is_stmt 1 view .LVU115
.LBB207:
.LBI207:
	.loc 2 98 1 view .LVU116
.LBB208:
	.loc 2 100 3 view .LVU117
.LBE208:
.LBE207:
	.loc 1 281 1 is_stmt 0 view .LVU118
	popq	%rbx
	.cfi_remember_state
	.cfi_def_cfa_offset 24
.LBB212:
.LBB209:
	.loc 2 100 10 view .LVU119
	movq	%rsi, %rcx
.LBE209:
.LBE212:
	.loc 1 281 1 view .LVU120
	popq	%r12
	.cfi_def_cfa_offset 16
.LBB213:
.LBB210:
	.loc 2 100 10 view .LVU121
	movl	$2, %edx
	movl	$1, %esi
.LVL39:
	.loc 2 100 10 view .LVU122
	leaq	.LC4(%rip), %rdi
.LVL40:
	.loc 2 100 10 view .LVU123
.LBE210:
.LBE213:
	.loc 1 281 1 view .LVU124
	popq	%r13
	.cfi_def_cfa_offset 8
.LVL41:
.LBB214:
.LBB211:
	.loc 2 100 10 view .LVU125
	jmp	fwrite@PLT
.LVL42:
	.p2align 4,,10
	.p2align 3
.L14:
	.cfi_restore_state
	.loc 2 100 10 view .LVU126
.LBE211:
.LBE214:
	.loc 1 279 2 is_stmt 1 view .LVU127
.LBB215:
.LBI215:
	.loc 2 98 1 view .LVU128
.LBB216:
	.loc 2 100 3 view .LVU129
.LBE216:
.LBE215:
	.loc 1 281 1 is_stmt 0 view .LVU130
	popq	%rbx
	.cfi_def_cfa_offset 24
.LBB220:
.LBB217:
	.loc 2 100 10 view .LVU131
	movl	%r12d, %ecx
	movq	%r13, %rdi
.LBE217:
.LBE220:
	.loc 1 281 1 view .LVU132
	popq	%r12
	.cfi_def_cfa_offset 16
.LVL43:
.LBB221:
.LBB218:
	.loc 2 100 10 view .LVU133
	leaq	.LC9(%rip), %rdx
	movl	$1, %esi
	xorl	%eax, %eax
.LBE218:
.LBE221:
	.loc 1 281 1 view .LVU134
	popq	%r13
	.cfi_def_cfa_offset 8
.LVL44:
.LBB222:
.LBB219:
	.loc 2 100 10 view .LVU135
	jmp	__fprintf_chk@PLT
.LVL45:
	.loc 2 100 10 view .LVU136
.LBE219:
.LBE222:
	.cfi_endproc
.LFE54:
	.size	print_char, .-print_char
	.section	.rodata.str1.8,"aMS",@progbits,1
	.align 8
.LC10:
	.string	"\\x used with no trailing hex digits"
	.section	.rodata.str1.1
.LC11:
	.string	"libexo.c"
	.section	.rodata.str1.8
	.align 8
.LC12:
	.string	"non-ANSI escape sequence `\\%c'"
	.align 8
.LC13:
	.string	"unknown escape, '\\' followed by char %x (`%c')"
	.text
	.p2align 4
	.type	intern_escape, @function
intern_escape:
.LVL46:
.LFB52:
	.loc 1 101 1 is_stmt 1 view -0
	.cfi_startproc
	.loc 1 102 3 view .LVU138
	.loc 1 104 3 view .LVU139
	.loc 1 101 1 is_stmt 0 view .LVU140
	pushq	%r12
	.cfi_def_cfa_offset 16
	.cfi_offset 12, -16
	pushq	%rbp
	.cfi_def_cfa_offset 24
	.cfi_offset 6, -24
	pushq	%rbx
	.cfi_def_cfa_offset 32
	.cfi_offset 3, -32
	.loc 1 104 15 view .LVU141
	movsbl	(%rdi), %r12d
	movl	%r12d, %eax
.LVL47:
	.loc 1 104 15 view .LVU142
	subl	$34, %eax
.LVL48:
	.loc 1 104 15 view .LVU143
	cmpb	$89, %al
	ja	.L18
	leaq	.L20(%rip), %rdx
	movzbl	%al, %eax
	leaq	1(%rdi), %rbx
.LVL49:
	.loc 1 104 15 view .LVU144
	movq	%rsi, %rbp
	movslq	(%rdx,%rax,4), %rax
	addq	%rdx, %rax
	notrack jmp	*%rax
	.section	.rodata
	.align 4
	.align 4
.L20:
	.long	.L25-.L20
	.long	.L18-.L20
	.long	.L18-.L20
	.long	.L19-.L20
	.long	.L18-.L20
	.long	.L25-.L20
	.long	.L19-.L20
	.long	.L18-.L20
	.long	.L18-.L20
	.long	.L18-.L20
	.long	.L18-.L20
	.long	.L18-.L20
	.long	.L18-.L20
	.long	.L18-.L20
	.long	.L30-.L20
	.long	.L30-.L20
	.long	.L30-.L20
	.long	.L30-.L20
	.long	.L30-.L20
	.long	.L30-.L20
	.long	.L30-.L20
	.long	.L30-.L20
	.long	.L18-.L20
	.long	.L18-.L20
	.long	.L18-.L20
	.long	.L18-.L20
	.long	.L18-.L20
	.long	.L18-.L20
	.long	.L18-.L20
	.long	.L25-.L20
	.long	.L18-.L20
	.long	.L18-.L20
	.long	.L18-.L20
	.long	.L18-.L20
	.long	.L18-.L20
	.long	.L18-.L20
	.long	.L18-.L20
	.long	.L18-.L20
	.long	.L18-.L20
	.long	.L18-.L20
	.long	.L18-.L20
	.long	.L18-.L20
	.long	.L18-.L20
	.long	.L18-.L20
	.long	.L18-.L20
	.long	.L18-.L20
	.long	.L18-.L20
	.long	.L18-.L20
	.long	.L18-.L20
	.long	.L18-.L20
	.long	.L18-.L20
	.long	.L18-.L20
	.long	.L18-.L20
	.long	.L18-.L20
	.long	.L18-.L20
	.long	.L18-.L20
	.long	.L18-.L20
	.long	.L19-.L20
	.long	.L25-.L20
	.long	.L18-.L20
	.long	.L18-.L20
	.long	.L18-.L20
	.long	.L18-.L20
	.long	.L28-.L20
	.long	.L27-.L20
	.long	.L18-.L20
	.long	.L18-.L20
	.long	.L18-.L20
	.long	.L26-.L20
	.long	.L18-.L20
	.long	.L18-.L20
	.long	.L18-.L20
	.long	.L18-.L20
	.long	.L18-.L20
	.long	.L18-.L20
	.long	.L18-.L20
	.long	.L42-.L20
	.long	.L18-.L20
	.long	.L18-.L20
	.long	.L18-.L20
	.long	.L24-.L20
	.long	.L18-.L20
	.long	.L23-.L20
	.long	.L18-.L20
	.long	.L22-.L20
	.long	.L18-.L20
	.long	.L43-.L20
	.long	.L18-.L20
	.long	.L18-.L20
	.long	.L19-.L20
	.text
	.p2align 4,,10
	.p2align 3
.L30:
.LVL50:
	.loc 1 137 11 is_stmt 1 view .LVU145
	.loc 1 139 9 view .LVU146
	.loc 1 140 11 is_stmt 0 view .LVU147
	movsbl	1(%rdi), %eax
	.loc 1 139 34 view .LVU148
	subl	$48, %r12d
.LVL51:
	.loc 1 140 9 is_stmt 1 view .LVU149
	.loc 1 140 17 is_stmt 0 view .LVU150
	leaq	2(%rdi), %rdx
.LVL52:
	.loc 1 137 11 is_stmt 1 view .LVU151
	.loc 1 137 23 is_stmt 0 view .LVU152
	subl	$48, %eax
.LVL53:
	.loc 1 137 11 view .LVU153
	cmpl	$7, %eax
	ja	.L25
.LVL54:
	.loc 1 139 9 is_stmt 1 view .LVU154
	.loc 1 139 15 is_stmt 0 view .LVU155
	leal	(%rax,%r12,8), %r12d
.LVL55:
	.loc 1 140 9 is_stmt 1 view .LVU156
	.loc 1 140 11 is_stmt 0 view .LVU157
	movsbl	2(%rdi), %eax
	.loc 1 140 17 view .LVU158
	leaq	3(%rdi), %rbx
.LVL56:
	.loc 1 137 11 is_stmt 1 view .LVU159
	.loc 1 137 23 is_stmt 0 view .LVU160
	subl	$48, %eax
.LVL57:
	.loc 1 137 11 view .LVU161
	cmpl	$7, %eax
	ja	.L44
.LVL58:
	.loc 1 139 9 is_stmt 1 view .LVU162
	.loc 1 139 15 is_stmt 0 view .LVU163
	leal	(%rax,%r12,8), %r12d
.LVL59:
	.loc 1 140 9 is_stmt 1 view .LVU164
	.loc 1 137 11 view .LVU165
	.p2align 4,,10
	.p2align 3
.L25:
	.loc 1 195 3 view .LVU166
	.loc 1 195 6 is_stmt 0 view .LVU167
	cmpq	$0, 0(%rbp)
	je	.L17
	.loc 1 196 5 is_stmt 1 view .LVU168
	.loc 1 196 11 is_stmt 0 view .LVU169
	movq	%rbx, 0(%rbp)
	.loc 1 198 3 is_stmt 1 view .LVU170
.L17:
	.loc 1 199 1 is_stmt 0 view .LVU171
	movl	%r12d, %eax
	popq	%rbx
	.cfi_remember_state
	.cfi_def_cfa_offset 24
.LVL60:
	.loc 1 199 1 view .LVU172
	popq	%rbp
	.cfi_def_cfa_offset 16
.LVL61:
	.loc 1 199 1 view .LVU173
	popq	%r12
	.cfi_def_cfa_offset 8
.LVL62:
	.loc 1 199 1 view .LVU174
	ret
.LVL63:
	.p2align 4,,10
	.p2align 3
.L19:
	.cfi_restore_state
	.loc 1 187 5 is_stmt 1 view .LVU175
	.loc 1 188 5 view .LVU176
	movl	%r12d, %r8d
	leaq	.LC12(%rip), %rcx
	xorl	%eax, %eax
	movl	$188, %edx
	leaq	__FUNCTION__.4190(%rip), %rsi
.LVL64:
	.loc 1 188 5 is_stmt 0 view .LVU177
	leaq	.LC11(%rip), %rdi
	call	_warn@PLT
.LVL65:
	.loc 1 189 5 is_stmt 1 view .LVU178
	jmp	.L25
.LVL66:
.L27:
	.loc 1 168 5 view .LVU179
	.loc 1 169 5 view .LVU180
	.loc 1 168 11 is_stmt 0 view .LVU181
	movl	$8, %r12d
.LVL67:
	.loc 1 169 5 view .LVU182
	jmp	.L25
.LVL68:
.L22:
	.loc 1 176 5 is_stmt 1 view .LVU183
	.loc 1 177 5 view .LVU184
	.loc 1 176 11 is_stmt 0 view .LVU185
	movl	$11, %r12d
.LVL69:
	.loc 1 177 5 view .LVU186
	jmp	.L25
.LVL70:
.L26:
	.loc 1 164 5 is_stmt 1 view .LVU187
	.loc 1 165 5 view .LVU188
	.loc 1 164 11 is_stmt 0 view .LVU189
	movl	$12, %r12d
.LVL71:
	.loc 1 165 5 view .LVU190
	jmp	.L25
.LVL72:
.L24:
	.loc 1 160 5 is_stmt 1 view .LVU191
	.loc 1 161 5 view .LVU192
	.loc 1 160 11 is_stmt 0 view .LVU193
	movl	$13, %r12d
.LVL73:
	.loc 1 161 5 view .LVU194
	jmp	.L25
.LVL74:
.L28:
	.loc 1 172 5 is_stmt 1 view .LVU195
	.loc 1 173 5 view .LVU196
	.loc 1 172 11 is_stmt 0 view .LVU197
	movl	$7, %r12d
.LVL75:
	.loc 1 173 5 view .LVU198
	jmp	.L25
.LVL76:
.L18:
	.loc 1 192 5 is_stmt 1 view .LVU199
	movl	%r12d, %r9d
	movl	%r12d, %r8d
	leaq	.LC13(%rip), %rcx
	xorl	%eax, %eax
	movl	$192, %edx
	leaq	__FUNCTION__.4190(%rip), %rsi
.LVL77:
	.loc 1 192 5 is_stmt 0 view .LVU200
	leaq	.LC11(%rip), %rdi
.LVL78:
	.loc 1 192 5 view .LVU201
	call	_fatal@PLT
.LVL79:
	.p2align 4,,10
	.p2align 3
.L43:
	.loc 1 104 13 view .LVU202
	movl	$1, %esi
.LVL80:
	.loc 1 104 13 view .LVU203
	xorl	%r12d, %r12d
.LVL81:
	.loc 1 104 13 view .LVU204
	jmp	.L21
.LVL82:
	.p2align 4,,10
	.p2align 3
.L47:
	.loc 1 114 16 view .LVU205
	subl	$48, %edx
.LVL83:
	.loc 1 114 13 view .LVU206
	cmpl	$9, %edx
	ja	.L46
	.loc 1 119 9 is_stmt 1 view .LVU207
	.loc 1 119 15 is_stmt 0 view .LVU208
	sall	$4, %r12d
.LVL84:
	.loc 1 120 9 is_stmt 1 view .LVU209
	.loc 1 122 9 view .LVU210
	.loc 1 124 9 view .LVU211
.L41:
	.loc 1 125 11 view .LVU212
	.loc 1 125 17 is_stmt 0 view .LVU213
	addl	%edx, %r12d
.LVL85:
.L38:
	.loc 1 101 1 view .LVU214
	movq	%rcx, %rbx
.LVL86:
	.loc 1 101 1 view .LVU215
	xorl	%esi, %esi
.LVL87:
.L21:
	.loc 1 109 5 is_stmt 1 view .LVU216
	.loc 1 111 9 view .LVU217
	.loc 1 111 13 is_stmt 0 view .LVU218
	movsbl	(%rbx), %edx
	.loc 1 111 17 view .LVU219
	leaq	1(%rbx), %rcx
.LVL88:
	.loc 1 111 13 view .LVU220
	movl	%edx, %eax
.LVL89:
	.loc 1 112 9 is_stmt 1 view .LVU221
	.loc 1 113 16 is_stmt 0 view .LVU222
	andl	$-33, %eax
.LVL90:
	.loc 1 113 16 view .LVU223
	subl	$65, %eax
	.loc 1 112 12 view .LVU224
	cmpb	$5, %al
	ja	.L47
	.loc 1 112 13 view .LVU225
	leal	-97(%rdx), %eax
	.loc 1 113 16 view .LVU226
	leal	-65(%rdx), %esi
.LVL91:
	.loc 1 119 9 is_stmt 1 view .LVU227
	.loc 1 119 15 is_stmt 0 view .LVU228
	sall	$4, %r12d
.LVL92:
	.loc 1 120 9 is_stmt 1 view .LVU229
	.loc 1 120 12 is_stmt 0 view .LVU230
	cmpl	$5, %eax
	ja	.L36
	.loc 1 121 11 is_stmt 1 view .LVU231
	.loc 1 121 17 is_stmt 0 view .LVU232
	leal	-87(%rdx,%r12), %r12d
.LVL93:
	.loc 1 122 9 is_stmt 1 view .LVU233
	.loc 1 122 12 is_stmt 0 view .LVU234
	cmpl	$5, %esi
	ja	.L38
.L37:
	.loc 1 123 11 is_stmt 1 view .LVU235
	.loc 1 123 17 is_stmt 0 view .LVU236
	leal	-55(%rdx,%r12), %r12d
.LVL94:
	.loc 1 124 9 is_stmt 1 view .LVU237
	jmp	.L38
.LVL95:
.L42:
	.loc 1 104 13 is_stmt 0 view .LVU238
	movl	$10, %r12d
.LVL96:
	.loc 1 104 13 view .LVU239
	jmp	.L25
.LVL97:
.L23:
	.loc 1 156 11 view .LVU240
	movl	$9, %r12d
.LVL98:
	.loc 1 156 11 view .LVU241
	jmp	.L25
.LVL99:
	.p2align 4,,10
	.p2align 3
.L46:
	.loc 1 116 13 is_stmt 1 view .LVU242
	.loc 1 117 13 view .LVU243
	.loc 1 128 5 view .LVU244
	.loc 1 128 8 is_stmt 0 view .LVU245
	testl	%esi, %esi
	je	.L25
	.loc 1 129 7 is_stmt 1 view .LVU246
	leaq	.LC10(%rip), %rcx
	movl	$129, %edx
.LVL100:
	.loc 1 129 7 is_stmt 0 view .LVU247
	leaq	__FUNCTION__.4190(%rip), %rsi
.LVL101:
	.loc 1 129 7 view .LVU248
	xorl	%eax, %eax
	leaq	.LC11(%rip), %rdi
	call	_fatal@PLT
.LVL102:
	.p2align 4,,10
	.p2align 3
.L36:
	.loc 1 122 9 is_stmt 1 view .LVU249
	.loc 1 122 12 is_stmt 0 view .LVU250
	cmpl	$5, %esi
	jbe	.L37
	.loc 1 124 9 is_stmt 1 view .LVU251
	.loc 1 124 12 is_stmt 0 view .LVU252
	subl	$48, %edx
.LVL103:
	.loc 1 124 12 view .LVU253
	cmpl	$9, %edx
	jbe	.L41
	jmp	.L38
.LVL104:
	.p2align 4,,10
	.p2align 3
.L44:
	.loc 1 137 11 view .LVU254
	movq	%rdx, %rbx
.LVL105:
	.loc 1 142 5 is_stmt 1 view .LVU255
	.loc 1 143 5 view .LVU256
	jmp	.L25
	.cfi_endproc
.LFE52:
	.size	intern_escape, .-intern_escape
	.section	.rodata.str1.1
.LC14:
	.string	"EXO parse error: line %d: %s\n"
	.text
	.p2align 4
	.type	exo_err, @function
exo_err:
.LVL106:
.LFB67:
	.loc 1 886 1 view -0
	.cfi_startproc
	.loc 1 886 1 is_stmt 0 view .LVU258
	pushq	%rax
	.cfi_def_cfa_offset 16
	popq	%rax
	.cfi_def_cfa_offset 8
	.loc 1 887 3 is_stmt 1 view .LVU259
	.loc 1 889 3 view .LVU260
.LVL107:
.LBB223:
.LBI223:
	.loc 2 98 1 view .LVU261
.LBB224:
	.loc 2 100 3 view .LVU262
	.loc 2 100 10 is_stmt 0 view .LVU263
	leaq	.LC14(%rip), %rdx
	movl	$1, %esi
	xorl	%eax, %eax
.LBE224:
.LBE223:
	.loc 1 886 1 view .LVU264
	subq	$8, %rsp
	.cfi_def_cfa_offset 16
	.loc 1 886 1 view .LVU265
	movq	%rdi, %r8
.LBB226:
.LBB225:
	.loc 2 100 10 view .LVU266
	movl	line(%rip), %ecx
	movq	stderr(%rip), %rdi
.LVL108:
	.loc 2 100 10 view .LVU267
	call	__fprintf_chk@PLT
.LVL109:
	.loc 2 100 10 view .LVU268
.LBE225:
.LBE226:
	.loc 1 890 3 is_stmt 1 view .LVU269
	movl	$1, %edi
	call	exit@PLT
.LVL110:
	.cfi_endproc
.LFE67:
	.size	exo_err, .-exo_err
	.section	.rodata.str1.1
.LC15:
	.string	"out of virtual memory"
	.text
	.p2align 4
	.type	exo_alloc.part.0, @function
exo_alloc.part.0:
.LFB69:
	.loc 1 405 1 view -0
	.cfi_startproc
	pushq	%rax
	.cfi_def_cfa_offset 16
	popq	%rax
	.cfi_def_cfa_offset 8
.LVL111:
	.loc 1 411 5 view .LVU271
	leaq	.LC15(%rip), %rcx
	movl	$411, %edx
	xorl	%eax, %eax
	leaq	__FUNCTION__.4283(%rip), %rsi
	leaq	.LC11(%rip), %rdi
	.loc 1 405 1 is_stmt 0 view .LVU272
	subq	$8, %rsp
	.cfi_def_cfa_offset 16
	.loc 1 411 5 view .LVU273
	call	_fatal@PLT
.LVL112:
	.cfi_endproc
.LFE69:
	.size	exo_alloc.part.0, .-exo_alloc.part.0
	.section	.rodata.str1.1
.LC16:
	.string	"prev"
	.text
	.p2align 4
	.type	exo_chain.part.0, @function
exo_chain.part.0:
.LFB71:
	.loc 1 626 1 is_stmt 1 view -0
	.cfi_startproc
	pushq	%rax
	.cfi_def_cfa_offset 16
	popq	%rax
	.cfi_def_cfa_offset 8
.LVL113:
	.loc 1 639 11 view .LVU275
	leaq	__PRETTY_FUNCTION__.4347(%rip), %rcx
	movl	$639, %edx
	leaq	.LC11(%rip), %rsi
	leaq	.LC16(%rip), %rdi
	.loc 1 626 1 is_stmt 0 view .LVU276
	subq	$8, %rsp
	.cfi_def_cfa_offset 16
	.loc 1 639 11 view .LVU277
	call	__assert_fail@PLT
.LVL114:
	.cfi_endproc
.LFE71:
	.size	exo_chain.part.0, .-exo_chain.part.0
	.p2align 4
	.globl	exo_intern
	.type	exo_intern, @function
exo_intern:
.LVL115:
.LFB58:
	.loc 1 351 1 is_stmt 1 view -0
	.cfi_startproc
	.loc 1 351 1 is_stmt 0 view .LVU279
	endbr64
	.loc 1 352 3 is_stmt 1 view .LVU280
	.loc 1 353 3 view .LVU281
	.loc 1 355 3 view .LVU282
.LVL116:
.LBB233:
.LBI233:
	.loc 1 340 1 view .LVU283
.LBB234:
	.loc 1 342 3 view .LVU284
	.loc 1 343 3 view .LVU285
	.loc 1 343 9 view .LVU286
.LBE234:
.LBE233:
	.loc 1 351 1 is_stmt 0 view .LVU287
	pushq	%r13
	.cfi_def_cfa_offset 16
	.cfi_offset 13, -16
	movq	%rdi, %r13
	pushq	%r12
	.cfi_def_cfa_offset 24
	.cfi_offset 12, -24
	pushq	%rbp
	.cfi_def_cfa_offset 32
	.cfi_offset 6, -32
	pushq	%rbx
	.cfi_def_cfa_offset 40
	.cfi_offset 3, -40
	subq	$8, %rsp
	.cfi_def_cfa_offset 48
.LBB237:
.LBB235:
	.loc 1 343 10 view .LVU288
	movsbl	(%rdi), %eax
	.loc 1 343 9 view .LVU289
	testb	%al, %al
	je	.L61
	movq	%rdi, %rdx
	.loc 1 342 12 view .LVU290
	xorl	%ecx, %ecx
.LVL117:
	.p2align 4,,10
	.p2align 3
.L56:
	.loc 1 344 5 is_stmt 1 view .LVU291
	.loc 1 344 22 is_stmt 0 view .LVU292
	addq	$1, %rdx
.LVL118:
	.loc 1 344 7 view .LVU293
	leal	(%rax,%rcx,2), %ecx
.LVL119:
	.loc 1 343 9 is_stmt 1 view .LVU294
	.loc 1 343 10 is_stmt 0 view .LVU295
	movsbl	(%rdx), %eax
	.loc 1 343 9 view .LVU296
	testb	%al, %al
	jne	.L56
	andl	$1023, %ecx
.LVL120:
.L55:
	.loc 1 345 3 is_stmt 1 view .LVU297
	.loc 1 345 3 is_stmt 0 view .LVU298
.LBE235:
.LBE237:
	.loc 1 357 3 is_stmt 1 view .LVU299
	.loc 1 357 11 is_stmt 0 view .LVU300
	leaq	token_hash(%rip), %rbp
	movslq	%ecx, %rbx
	movq	0(%rbp,%rbx,8), %r12
.LVL121:
	.loc 1 357 31 is_stmt 1 view .LVU301
	.loc 1 357 3 is_stmt 0 view .LVU302
	testq	%r12, %r12
	jne	.L59
	jmp	.L57
.LVL122:
	.p2align 4,,10
	.p2align 3
.L71:
	.loc 1 357 43 is_stmt 1 discriminator 2 view .LVU303
	.loc 1 357 46 is_stmt 0 discriminator 2 view .LVU304
	movq	(%r12), %r12
.LVL123:
	.loc 1 357 31 is_stmt 1 discriminator 2 view .LVU305
	.loc 1 357 3 is_stmt 0 discriminator 2 view .LVU306
	testq	%r12, %r12
	je	.L57
.L59:
	.loc 1 359 7 is_stmt 1 view .LVU307
	.loc 1 359 12 is_stmt 0 view .LVU308
	movq	8(%r12), %rsi
	movq	%r13, %rdi
	call	strcmp@PLT
.LVL124:
	.loc 1 359 10 view .LVU309
	testl	%eax, %eax
	jne	.L71
	.loc 1 377 1 view .LVU310
	addq	$8, %rsp
	.cfi_remember_state
	.cfi_def_cfa_offset 40
	movq	%r12, %rax
	popq	%rbx
	.cfi_def_cfa_offset 32
	popq	%rbp
	.cfi_def_cfa_offset 24
	popq	%r12
	.cfi_def_cfa_offset 16
.LVL125:
	.loc 1 377 1 view .LVU311
	popq	%r13
	.cfi_def_cfa_offset 8
.LVL126:
	.loc 1 377 1 view .LVU312
	ret
.LVL127:
	.p2align 4,,10
	.p2align 3
.L57:
	.cfi_restore_state
	.loc 1 367 3 is_stmt 1 view .LVU313
	.loc 1 367 31 is_stmt 0 view .LVU314
	movl	$24, %esi
	movl	$1, %edi
	call	calloc@PLT
.LVL128:
	movq	%rax, %r12
.LVL129:
	.loc 1 368 3 is_stmt 1 view .LVU315
	.loc 1 368 6 is_stmt 0 view .LVU316
	testq	%rax, %rax
	je	.L72
	.loc 1 371 3 is_stmt 1 view .LVU317
	.loc 1 371 14 is_stmt 0 view .LVU318
	movq	%r13, %rdi
	call	mystrdup@PLT
.LVL130:
	.loc 1 371 12 view .LVU319
	movq	%rax, 8(%r12)
	.loc 1 372 3 is_stmt 1 view .LVU320
	.loc 1 372 24 is_stmt 0 view .LVU321
	movl	token_id(%rip), %eax
	.loc 1 372 14 view .LVU322
	movl	%eax, 16(%r12)
	.loc 1 373 3 is_stmt 1 view .LVU323
	.loc 1 372 24 is_stmt 0 view .LVU324
	leal	1(%rax), %edx
	.loc 1 373 13 view .LVU325
	movq	0(%rbp,%rbx,8), %rax
	.loc 1 372 24 view .LVU326
	movl	%edx, token_id(%rip)
	.loc 1 373 13 view .LVU327
	movq	%rax, (%r12)
	.loc 1 374 3 is_stmt 1 view .LVU328
	.loc 1 377 1 is_stmt 0 view .LVU329
	movq	%r12, %rax
	.loc 1 374 21 view .LVU330
	movq	%r12, 0(%rbp,%rbx,8)
	.loc 1 376 3 is_stmt 1 view .LVU331
	.loc 1 377 1 is_stmt 0 view .LVU332
	addq	$8, %rsp
	.cfi_remember_state
	.cfi_def_cfa_offset 40
	popq	%rbx
	.cfi_def_cfa_offset 32
	popq	%rbp
	.cfi_def_cfa_offset 24
	popq	%r12
	.cfi_def_cfa_offset 16
.LVL131:
	.loc 1 377 1 view .LVU333
	popq	%r13
	.cfi_def_cfa_offset 8
.LVL132:
	.loc 1 377 1 view .LVU334
	ret
.LVL133:
	.p2align 4,,10
	.p2align 3
.L61:
	.cfi_restore_state
.LBB238:
.LBB236:
	.loc 1 343 9 view .LVU335
	xorl	%ecx, %ecx
	jmp	.L55
.LVL134:
.L72:
	.loc 1 343 9 view .LVU336
.LBE236:
.LBE238:
.LBB239:
.LBI239:
	.loc 1 350 1 is_stmt 1 view .LVU337
.LBB240:
	.loc 1 369 5 view .LVU338
	leaq	.LC15(%rip), %rcx
	movl	$369, %edx
	leaq	__FUNCTION__.4273(%rip), %rsi
	xorl	%eax, %eax
.LVL135:
	.loc 1 369 5 is_stmt 0 view .LVU339
	leaq	.LC11(%rip), %rdi
	call	_fatal@PLT
.LVL136:
.LBE240:
.LBE239:
	.cfi_endproc
.LFE58:
	.size	exo_intern, .-exo_intern
	.p2align 4
	.globl	exo_intern_as
	.type	exo_intern_as, @function
exo_intern_as:
.LVL137:
.LFB59:
	.loc 1 383 1 is_stmt 1 view -0
	.cfi_startproc
	.loc 1 383 1 is_stmt 0 view .LVU341
	endbr64
	.loc 1 384 3 is_stmt 1 view .LVU342
	.loc 1 391 3 view .LVU343
	.loc 1 383 1 is_stmt 0 view .LVU344
	pushq	%rbx
	.cfi_def_cfa_offset 16
	.cfi_offset 3, -16
	.loc 1 383 1 view .LVU345
	movl	%esi, %ebx
	.loc 1 391 9 view .LVU346
	call	exo_intern
.LVL138:
	.loc 1 393 3 is_stmt 1 view .LVU347
	.loc 1 393 14 is_stmt 0 view .LVU348
	movl	%ebx, 16(%rax)
	.loc 1 400 3 is_stmt 1 view .LVU349
	.loc 1 401 1 is_stmt 0 view .LVU350
	popq	%rbx
	.cfi_def_cfa_offset 8
.LVL139:
	.loc 1 401 1 view .LVU351
	ret
	.cfi_endproc
.LFE59:
	.size	exo_intern_as, .-exo_intern_as
	.section	.rodata.str1.1
.LC17:
	.string	"array constructor overflow"
.LC18:
	.string	"array bounds error"
.LC19:
	.string	"bogus EXO class"
	.text
	.p2align 4
	.globl	exo_new
	.type	exo_new, @function
exo_new:
.LVL140:
.LFB61:
	.loc 1 433 1 is_stmt 1 view -0
	.cfi_startproc
	.loc 1 433 1 is_stmt 0 view .LVU353
	endbr64
	pushq	%r13
	.cfi_def_cfa_offset 16
	.cfi_offset 13, -16
	pushq	%r12
	.cfi_def_cfa_offset 24
	.cfi_offset 12, -24
	pushq	%rbp
	.cfi_def_cfa_offset 32
	.cfi_offset 6, -32
	pushq	%rbx
	.cfi_def_cfa_offset 40
	.cfi_offset 3, -40
	movl	%edi, %ebx
	subq	$216, %rsp
	.cfi_def_cfa_offset 256
	movq	%rsi, 40(%rsp)
	movq	%rdx, 48(%rsp)
	movq	%rcx, 56(%rsp)
	movq	%r8, 64(%rsp)
	movq	%r9, 72(%rsp)
	testb	%al, %al
	je	.L76
	movaps	%xmm0, 80(%rsp)
.L76:
	.loc 1 433 1 view .LVU354
	movq	%fs:40, %rax
	movq	%rax, 24(%rsp)
	xorl	%eax, %eax
	.loc 1 434 3 is_stmt 1 view .LVU355
	.loc 1 435 3 view .LVU356
	.loc 1 436 2 view .LVU357
	leaq	256(%rsp), %rax
.LBB254:
.LBB255:
	.loc 1 409 30 is_stmt 0 view .LVU358
	movl	$32, %esi
	movl	$1, %edi
.LVL141:
	.loc 1 409 30 view .LVU359
.LBE255:
.LBE254:
	.loc 1 436 2 view .LVU360
	movq	%rax, 8(%rsp)
	leaq	32(%rsp), %rax
	movl	$8, (%rsp)
	movl	$48, 4(%rsp)
	movq	%rax, 16(%rsp)
	.loc 1 438 3 is_stmt 1 view .LVU361
.LVL142:
.LBB258:
.LBI254:
	.loc 1 405 1 view .LVU362
.LBB256:
	.loc 1 407 3 view .LVU363
	.loc 1 409 3 view .LVU364
	.loc 1 409 30 is_stmt 0 view .LVU365
	call	calloc@PLT
.LVL143:
	movq	%rax, %r12
.LVL144:
	.loc 1 410 3 is_stmt 1 view .LVU366
	.loc 1 410 6 is_stmt 0 view .LVU367
	testq	%rax, %rax
	je	.L137
	.loc 1 412 3 is_stmt 1 view .LVU368
	.loc 1 412 13 is_stmt 0 view .LVU369
	movq	$0, (%rax)
	.loc 1 413 3 is_stmt 1 view .LVU370
	.loc 1 413 11 is_stmt 0 view .LVU371
	movl	%ebx, 8(%rax)
	.loc 1 415 3 is_stmt 1 view .LVU372
.LVL145:
	.loc 1 415 3 is_stmt 0 view .LVU373
.LBE256:
.LBE258:
	.loc 1 439 3 is_stmt 1 view .LVU374
	cmpl	$9, %ebx
	ja	.L78
	leaq	.L80(%rip), %rdx
	movslq	(%rdx,%rbx,4), %rax
.LVL146:
	.loc 1 439 3 is_stmt 0 view .LVU375
	addq	%rdx, %rax
	notrack jmp	*%rax
	.section	.rodata
	.align 4
	.align 4
.L80:
	.long	.L88-.L80
	.long	.L88-.L80
	.long	.L87-.L80
	.long	.L86-.L80
	.long	.L85-.L80
	.long	.L84-.L80
	.long	.L83-.L80
	.long	.L82-.L80
	.long	.L81-.L80
	.long	.L75-.L80
	.text
	.p2align 4,,10
	.p2align 3
.L81:
.LBB259:
	.loc 1 513 2 is_stmt 1 view .LVU376
	.loc 1 514 2 view .LVU377
	.loc 1 516 2 view .LVU378
	.loc 1 516 7 is_stmt 0 view .LVU379
	movl	(%rsp), %eax
	cmpl	$47, %eax
	ja	.L117
	movq	16(%rsp), %rcx
	leal	8(%rax), %esi
	movl	(%rcx,%rax), %edx
	.loc 1 517 2 is_stmt 1 view .LVU380
	.loc 1 517 7 is_stmt 0 view .LVU381
	cmpl	$47, %esi
	ja	.L138
	movl	%esi, %eax
	addq	%rcx, %rax
.L121:
	.loc 1 520 30 view .LVU382
	movl	%edx, %r13d
	.loc 1 517 7 view .LVU383
	movq	(%rax), %rbp
	.loc 1 519 2 is_stmt 1 view .LVU384
	.loc 1 520 30 is_stmt 0 view .LVU385
	movl	$1, %esi
	.loc 1 519 28 view .LVU386
	movl	%edx, 16(%r12)
	.loc 1 520 2 is_stmt 1 view .LVU387
	.loc 1 520 30 is_stmt 0 view .LVU388
	movq	%r13, %rdi
	call	calloc@PLT
.LVL147:
	.loc 1 520 28 view .LVU389
	movq	%rax, 24(%r12)
	.loc 1 521 2 is_stmt 1 view .LVU390
	.loc 1 520 30 is_stmt 0 view .LVU391
	movq	%rax, %rdi
	.loc 1 521 5 view .LVU392
	testq	%rbp, %rbp
	je	.L75
	.loc 1 522 4 is_stmt 1 view .LVU393
.LVL148:
.LBB260:
.LBI260:
	.file 3 "/usr/include/x86_64-linux-gnu/bits/string_fortified.h"
	.loc 3 31 42 view .LVU394
.LBB261:
	.loc 3 34 3 view .LVU395
	.loc 3 34 10 is_stmt 0 view .LVU396
	movq	%r13, %rdx
	movq	%rbp, %rsi
	call	memcpy@PLT
.LVL149:
	.p2align 4,,10
	.p2align 3
.L75:
	.loc 3 34 10 view .LVU397
.LBE261:
.LBE260:
.LBE259:
	.loc 1 537 1 view .LVU398
	movq	24(%rsp), %rax
	xorq	%fs:40, %rax
	jne	.L139
	addq	$216, %rsp
	.cfi_remember_state
	.cfi_def_cfa_offset 40
	movq	%r12, %rax
	popq	%rbx
	.cfi_def_cfa_offset 32
	popq	%rbp
	.cfi_def_cfa_offset 24
	popq	%r12
	.cfi_def_cfa_offset 16
.LVL150:
	.loc 1 537 1 view .LVU399
	popq	%r13
	.cfi_def_cfa_offset 8
	ret
.LVL151:
	.p2align 4,,10
	.p2align 3
.L88:
	.cfi_restore_state
	.loc 1 446 7 is_stmt 1 view .LVU400
	.loc 1 446 28 is_stmt 0 view .LVU401
	movl	(%rsp), %eax
	cmpl	$47, %eax
	ja	.L92
	addq	16(%rsp), %rax
.L93:
	.loc 1 446 35 view .LVU402
	movq	(%rax), %rax
	movq	%rax, 16(%r12)
	.loc 1 447 7 is_stmt 1 view .LVU403
	jmp	.L75
	.p2align 4,,10
	.p2align 3
.L87:
	.loc 1 450 7 view .LVU404
	.loc 1 450 26 is_stmt 0 view .LVU405
	movl	4(%rsp), %eax
	cmpl	$175, %eax
	jbe	.L140
	movq	8(%rsp), %rax
.L95:
	.loc 1 450 33 view .LVU406
	movsd	(%rax), %xmm0
	movsd	%xmm0, 16(%r12)
	.loc 1 451 7 is_stmt 1 view .LVU407
	jmp	.L75
	.p2align 4,,10
	.p2align 3
.L84:
.LBB262:
	.loc 1 468 2 view .LVU408
	.loc 1 470 2 view .LVU409
	movl	(%rsp), %edi
	.loc 1 472 8 is_stmt 0 view .LVU410
	movq	16(%rsp), %r9
	xorl	%esi, %esi
	.loc 1 471 2 is_stmt 1 view .LVU411
	.loc 1 472 4 view .LVU412
	.loc 1 470 28 is_stmt 0 view .LVU413
	movq	$0, 16(%r12)
	movq	8(%rsp), %r8
	.loc 1 472 8 view .LVU414
	cmpl	$47, %edi
	ja	.L100
	.p2align 4,,10
	.p2align 3
.L141:
	movl	%edi, %eax
	addl	$8, %edi
	addq	%r9, %rax
.L101:
	movq	(%rax), %rcx
	.loc 1 473 4 is_stmt 1 view .LVU415
.LVL152:
.LBB263:
.LBI263:
	.loc 1 626 1 view .LVU416
.LBB264:
	.loc 1 628 3 view .LVU417
	.loc 1 630 3 view .LVU418
	.loc 1 630 6 is_stmt 0 view .LVU419
	movq	%rcx, %rax
	orq	%rsi, %rax
	je	.L75
	.loc 1 633 3 is_stmt 1 view .LVU420
	.loc 1 633 6 is_stmt 0 view .LVU421
	testq	%rsi, %rsi
	je	.L123
	movq	%rsi, %rax
	.p2align 4,,10
	.p2align 3
.L104:
.LVL153:
	.loc 1 638 15 is_stmt 1 view .LVU422
	.loc 1 637 40 view .LVU423
	.loc 1 637 40 is_stmt 0 view .LVU424
	movq	%rax, %rdx
	.loc 1 637 52 view .LVU425
	movq	(%rax), %rax
.LVL154:
	.loc 1 637 27 is_stmt 1 view .LVU426
	.loc 1 637 3 is_stmt 0 view .LVU427
	testq	%rax, %rax
	jne	.L104
	.loc 1 639 2 is_stmt 1 view .LVU428
	.loc 1 642 3 view .LVU429
	.loc 1 642 14 is_stmt 0 view .LVU430
	movq	%rcx, (%rdx)
	.loc 1 644 3 is_stmt 1 view .LVU431
.LVL155:
.L103:
	.loc 1 644 3 is_stmt 0 view .LVU432
.LBE264:
.LBE263:
	.loc 1 473 30 view .LVU433
	movq	%rsi, 16(%r12)
	.loc 1 474 10 is_stmt 1 view .LVU434
	.loc 1 474 21 is_stmt 0 view .LVU435
	testq	%rcx, %rcx
	je	.L75
	.loc 1 471 2 is_stmt 1 view .LVU436
	.loc 1 472 4 view .LVU437
	.loc 1 472 8 is_stmt 0 view .LVU438
	cmpl	$47, %edi
	jbe	.L141
.L100:
	.loc 1 472 8 view .LVU439
	movq	%r8, %rax
	addq	$8, %r8
	jmp	.L101
	.p2align 4,,10
	.p2align 3
.L83:
	.loc 1 472 8 view .LVU440
.LBE262:
.LBB265:
	.loc 1 480 2 is_stmt 1 view .LVU441
	.loc 1 481 2 view .LVU442
	.loc 1 483 2 view .LVU443
	.loc 1 483 22 is_stmt 0 view .LVU444
	movl	(%rsp), %ebx
	cmpl	$47, %ebx
	ja	.L107
	movl	%ebx, %eax
	addl	$8, %ebx
	addq	16(%rsp), %rax
	movl	%ebx, (%rsp)
.L108:
	movslq	(%rax), %rdi
	.loc 1 485 4 view .LVU445
	movl	$8, %esi
	.loc 1 483 29 view .LVU446
	movl	%edi, 16(%r12)
	.loc 1 484 2 is_stmt 1 view .LVU447
	.loc 1 485 4 is_stmt 0 view .LVU448
	call	calloc@PLT
.LVL156:
	.loc 1 484 30 view .LVU449
	movq	%rax, 24(%r12)
	.loc 1 486 2 is_stmt 1 view .LVU450
	.loc 1 486 5 is_stmt 0 view .LVU451
	testq	%rax, %rax
	je	.L109
	.loc 1 490 8 view .LVU452
	movq	16(%rsp), %r8
	movl	(%rsp), %edi
	xorl	%edx, %edx
.LVL157:
	.loc 1 489 2 is_stmt 1 view .LVU453
	.loc 1 490 4 view .LVU454
	movq	8(%rsp), %rcx
	.loc 1 490 8 is_stmt 0 view .LVU455
	cmpl	$47, %ebx
	ja	.L111
	.p2align 4,,10
	.p2align 3
.L144:
	.loc 1 490 8 view .LVU456
	movl	%ebx, %eax
	leal	8(%rbx), %edi
	addq	%r8, %rax
.L112:
	.loc 1 490 8 view .LVU457
	movq	(%rax), %rax
	.loc 1 491 4 is_stmt 1 view .LVU458
	.loc 1 491 7 is_stmt 0 view .LVU459
	testq	%rax, %rax
	je	.L75
	.loc 1 493 8 is_stmt 1 view .LVU460
	.loc 1 493 11 is_stmt 0 view .LVU461
	cmpl	%edx, 16(%r12)
	je	.L142
	.loc 1 495 8 is_stmt 1 view .LVU462
	.loc 1 495 200 is_stmt 0 view .LVU463
	jle	.L143
	.loc 1 495 244 discriminator 4 view .LVU464
	movq	24(%r12), %rsi
	movl	%edi, %ebx
	movq	%rax, (%rsi,%rdx,8)
	.loc 1 497 4 is_stmt 1 discriminator 4 view .LVU465
.LVL158:
	.loc 1 498 10 discriminator 4 view .LVU466
	addq	$1, %rdx
.LVL159:
	.loc 1 489 2 discriminator 4 view .LVU467
	.loc 1 490 4 discriminator 4 view .LVU468
	.loc 1 490 8 is_stmt 0 discriminator 4 view .LVU469
	cmpl	$47, %ebx
	jbe	.L144
.L111:
	.loc 1 490 8 view .LVU470
	movq	%rcx, %rax
	addq	$8, %rcx
	jmp	.L112
.LVL160:
	.p2align 4,,10
	.p2align 3
.L82:
	.loc 1 490 8 view .LVU471
.LBE265:
.LBB266:
	.loc 1 504 2 is_stmt 1 view .LVU472
	.loc 1 506 2 view .LVU473
	.loc 1 506 6 is_stmt 0 view .LVU474
	movl	(%rsp), %eax
	cmpl	$47, %eax
	ja	.L115
	addq	16(%rsp), %rax
.L116:
	.loc 1 507 2 is_stmt 1 view .LVU475
	.loc 1 507 30 is_stmt 0 view .LVU476
	movq	(%rax), %rdi
	call	exo_intern
.LVL161:
	.loc 1 507 28 view .LVU477
	movq	%rax, 16(%r12)
.LBE266:
	.loc 1 509 7 is_stmt 1 view .LVU478
	jmp	.L75
	.p2align 4,,10
	.p2align 3
.L86:
	.loc 1 454 7 view .LVU479
	.loc 1 454 25 is_stmt 0 view .LVU480
	movl	(%rsp), %eax
	cmpl	$47, %eax
	ja	.L96
	addq	16(%rsp), %rax
.L97:
	.loc 1 454 32 view .LVU481
	movl	(%rax), %eax
	movb	%al, 16(%r12)
	.loc 1 455 7 is_stmt 1 view .LVU482
	jmp	.L75
	.p2align 4,,10
	.p2align 3
.L85:
.LBB267:
	.loc 1 459 2 view .LVU483
	.loc 1 461 2 view .LVU484
	.loc 1 461 6 is_stmt 0 view .LVU485
	movl	(%rsp), %eax
	cmpl	$47, %eax
	ja	.L98
	addq	16(%rsp), %rax
.L99:
	.loc 1 462 2 is_stmt 1 view .LVU486
	.loc 1 462 48 is_stmt 0 view .LVU487
	movq	(%rax), %rdi
	call	mystrdup@PLT
.LVL162:
	.loc 1 462 29 view .LVU488
	movq	%rax, 16(%r12)
.LBE267:
	.loc 1 464 7 is_stmt 1 view .LVU489
	jmp	.L75
.LVL163:
	.p2align 4,,10
	.p2align 3
.L123:
.LBB268:
	.loc 1 472 8 is_stmt 0 view .LVU490
	movq	%rcx, %rsi
	jmp	.L103
.LVL164:
	.p2align 4,,10
	.p2align 3
.L92:
	.loc 1 472 8 view .LVU491
.LBE268:
	.loc 1 446 28 view .LVU492
	movq	8(%rsp), %rax
	jmp	.L93
	.p2align 4,,10
	.p2align 3
.L98:
.LBB269:
	.loc 1 461 6 view .LVU493
	movq	8(%rsp), %rax
	jmp	.L99
	.p2align 4,,10
	.p2align 3
.L96:
.LBE269:
	.loc 1 454 25 view .LVU494
	movq	8(%rsp), %rax
	jmp	.L97
	.p2align 4,,10
	.p2align 3
.L117:
.LBB270:
	.loc 1 516 7 view .LVU495
	movq	8(%rsp), %rdx
	leaq	8(%rdx), %rax
	movl	(%rdx), %edx
	.loc 1 517 2 is_stmt 1 view .LVU496
	jmp	.L121
	.p2align 4,,10
	.p2align 3
.L115:
.LBE270:
.LBB271:
	.loc 1 506 6 is_stmt 0 view .LVU497
	movq	8(%rsp), %rax
	jmp	.L116
	.p2align 4,,10
	.p2align 3
.L107:
.LBE271:
.LBB272:
	.loc 1 483 22 view .LVU498
	movq	8(%rsp), %rax
	leaq	8(%rax), %rdx
	movq	%rdx, 8(%rsp)
	jmp	.L108
	.p2align 4,,10
	.p2align 3
.L140:
.LBE272:
	.loc 1 450 26 view .LVU499
	addq	16(%rsp), %rax
	jmp	.L95
.LVL165:
.L143:
.LBB273:
	.loc 1 495 134 discriminator 3 view .LVU500
	leaq	.LC18(%rip), %rcx
	movl	$495, %edx
.LVL166:
	.loc 1 495 134 discriminator 3 view .LVU501
	leaq	__FUNCTION__.4303(%rip), %rsi
	xorl	%eax, %eax
	leaq	.LC11(%rip), %rdi
	call	_fatal@PLT
.LVL167:
.L142:
	.loc 1 494 3 is_stmt 1 view .LVU502
	leaq	.LC17(%rip), %rcx
	movl	$494, %edx
.LVL168:
	.loc 1 494 3 is_stmt 0 view .LVU503
	leaq	__FUNCTION__.4303(%rip), %rsi
	xorl	%eax, %eax
	leaq	.LC11(%rip), %rdi
	call	_fatal@PLT
.LVL169:
.L137:
	.loc 1 494 3 view .LVU504
.LBE273:
.LBB274:
.LBB257:
	call	exo_alloc.part.0
.LVL170:
.L139:
	.loc 1 494 3 view .LVU505
.LBE257:
.LBE274:
	.loc 1 537 1 view .LVU506
	call	__stack_chk_fail@PLT
.LVL171:
.L78:
	.loc 1 532 7 is_stmt 1 view .LVU507
	leaq	.LC19(%rip), %rcx
	movl	$532, %edx
	leaq	__FUNCTION__.4303(%rip), %rsi
	xorl	%eax, %eax
.LVL172:
	.loc 1 532 7 is_stmt 0 view .LVU508
	leaq	.LC11(%rip), %rdi
	call	_panic@PLT
.LVL173:
.L109:
.LBB275:
	.loc 1 487 4 is_stmt 1 view .LVU509
	leaq	.LC15(%rip), %rcx
	movl	$487, %edx
	leaq	__FUNCTION__.4303(%rip), %rsi
	xorl	%eax, %eax
	leaq	.LC11(%rip), %rdi
	call	_fatal@PLT
.LVL174:
.L138:
	.loc 1 487 4 is_stmt 0 view .LVU510
	movq	8(%rsp), %rax
	jmp	.L121
.LBE275:
	.cfi_endproc
.LFE61:
	.size	exo_new, .-exo_new
	.p2align 4
	.globl	exo_delete
	.type	exo_delete, @function
exo_delete:
.LVL175:
.LFB62:
	.loc 1 542 1 is_stmt 1 view -0
	.cfi_startproc
	.loc 1 542 1 is_stmt 0 view .LVU512
	endbr64
	.loc 1 543 3 is_stmt 1 view .LVU513
	.loc 1 542 1 is_stmt 0 view .LVU514
	pushq	%rbp
	.cfi_def_cfa_offset 16
	.cfi_offset 6, -16
	pushq	%rbx
	.cfi_def_cfa_offset 24
	.cfi_offset 3, -24
	subq	$8, %rsp
	.cfi_def_cfa_offset 32
	cmpl	$9, 8(%rdi)
	.loc 1 543 13 view .LVU515
	movq	$0, (%rdi)
	.loc 1 545 3 is_stmt 1 view .LVU516
	ja	.L146
	movl	8(%rdi), %eax
	leaq	.L148(%rip), %rdx
	movq	%rdi, %rbp
	movslq	(%rdx,%rax,4), %rax
	addq	%rdx, %rax
	notrack jmp	*%rax
	.section	.rodata
	.align 4
	.align 4
.L148:
	.long	.L147-.L148
	.long	.L147-.L148
	.long	.L147-.L148
	.long	.L147-.L148
	.long	.L152-.L148
	.long	.L151-.L148
	.long	.L150-.L148
	.long	.L147-.L148
	.long	.L149-.L148
	.long	.L147-.L148
	.text
	.p2align 4,,10
	.p2align 3
.L150:
.LVL176:
.LBB276:
	.loc 1 589 12 view .LVU517
	.loc 1 589 37 is_stmt 0 view .LVU518
	movl	16(%rdi), %eax
	movq	24(%rdi), %r8
	.loc 1 589 2 view .LVU519
	xorl	%ebx, %ebx
	testl	%eax, %eax
	jle	.L154
.LVL177:
.L153:
	.loc 1 591 6 is_stmt 1 view .LVU520
	.loc 1 591 37 is_stmt 0 view .LVU521
	movq	(%r8,%rbx,8), %rdi
	.loc 1 591 9 view .LVU522
	testq	%rdi, %rdi
	je	.L157
	.loc 1 592 8 is_stmt 1 view .LVU523
	call	exo_delete
.LVL178:
	movl	16(%rbp), %eax
	addq	$1, %rbx
.LVL179:
	.loc 1 592 8 is_stmt 0 view .LVU524
	movq	24(%rbp), %r8
	.loc 1 589 44 is_stmt 1 view .LVU525
	.loc 1 589 12 view .LVU526
	.loc 1 589 2 is_stmt 0 view .LVU527
	cmpl	%ebx, %eax
	jg	.L153
.L154:
	.loc 1 594 2 is_stmt 1 view .LVU528
	movq	%r8, %rdi
	call	free@PLT
.LVL180:
	.loc 1 595 2 view .LVU529
	.loc 1 596 2 view .LVU530
.LBE276:
	.loc 1 598 7 view .LVU531
.L147:
	.loc 1 618 3 view .LVU532
	.loc 1 621 3 view .LVU533
	.loc 1 622 1 is_stmt 0 view .LVU534
	addq	$8, %rsp
	.cfi_remember_state
	.cfi_def_cfa_offset 24
	.loc 1 621 3 view .LVU535
	movq	%rbp, %rdi
	.loc 1 622 1 view .LVU536
	popq	%rbx
	.cfi_def_cfa_offset 16
	popq	%rbp
	.cfi_def_cfa_offset 8
.LVL181:
	.loc 1 621 3 view .LVU537
	jmp	free@PLT
.LVL182:
	.p2align 4,,10
	.p2align 3
.L149:
	.cfi_restore_state
	.loc 1 607 7 is_stmt 1 view .LVU538
	movq	24(%rdi), %rdi
.LVL183:
	.loc 1 607 7 is_stmt 0 view .LVU539
	call	free@PLT
.LVL184:
	.loc 1 608 7 is_stmt 1 view .LVU540
	.loc 1 609 7 view .LVU541
	.loc 1 618 3 view .LVU542
	.loc 1 621 3 view .LVU543
	.loc 1 622 1 is_stmt 0 view .LVU544
	addq	$8, %rsp
	.cfi_remember_state
	.cfi_def_cfa_offset 24
	.loc 1 621 3 view .LVU545
	movq	%rbp, %rdi
	.loc 1 622 1 view .LVU546
	popq	%rbx
	.cfi_def_cfa_offset 16
	popq	%rbp
	.cfi_def_cfa_offset 8
.LVL185:
	.loc 1 621 3 view .LVU547
	jmp	free@PLT
.LVL186:
	.p2align 4,,10
	.p2align 3
.L152:
	.cfi_restore_state
	.loc 1 568 7 is_stmt 1 view .LVU548
	movq	16(%rdi), %rdi
.LVL187:
	.loc 1 568 7 is_stmt 0 view .LVU549
	call	free@PLT
.LVL188:
	.loc 1 569 7 is_stmt 1 view .LVU550
	.loc 1 570 7 view .LVU551
	.loc 1 618 3 view .LVU552
	.loc 1 621 3 view .LVU553
	.loc 1 622 1 is_stmt 0 view .LVU554
	addq	$8, %rsp
	.cfi_remember_state
	.cfi_def_cfa_offset 24
	.loc 1 621 3 view .LVU555
	movq	%rbp, %rdi
	.loc 1 622 1 view .LVU556
	popq	%rbx
	.cfi_def_cfa_offset 16
	popq	%rbp
	.cfi_def_cfa_offset 8
.LVL189:
	.loc 1 621 3 view .LVU557
	jmp	free@PLT
.LVL190:
	.p2align 4,,10
	.p2align 3
.L151:
	.cfi_restore_state
.LBB277:
	.loc 1 574 2 is_stmt 1 view .LVU558
	.loc 1 576 2 view .LVU559
	.loc 1 576 10 is_stmt 0 view .LVU560
	movq	16(%rdi), %rbx
.LVL191:
	.loc 1 576 38 is_stmt 1 view .LVU561
	.loc 1 576 2 is_stmt 0 view .LVU562
	testq	%rbx, %rbx
	je	.L147
.LVL192:
.L155:
	.loc 1 578 6 is_stmt 1 discriminator 3 view .LVU563
	movq	%rbx, %rdi
	.loc 1 578 15 is_stmt 0 discriminator 3 view .LVU564
	movq	(%rbx), %rbx
.LVL193:
	.loc 1 579 6 is_stmt 1 discriminator 3 view .LVU565
	call	exo_delete
.LVL194:
	.loc 1 576 42 discriminator 3 view .LVU566
	.loc 1 576 38 discriminator 3 view .LVU567
	.loc 1 576 2 is_stmt 0 discriminator 3 view .LVU568
	testq	%rbx, %rbx
	jne	.L155
	jmp	.L147
.LVL195:
	.p2align 4,,10
	.p2align 3
.L157:
	.loc 1 576 2 discriminator 3 view .LVU569
.LBE277:
.LBB278:
	.loc 1 589 44 is_stmt 1 discriminator 2 view .LVU570
	.loc 1 589 12 discriminator 2 view .LVU571
	addq	$1, %rbx
.LVL196:
	.loc 1 589 2 is_stmt 0 discriminator 2 view .LVU572
	cmpl	%ebx, %eax
	jg	.L153
	jmp	.L154
.LVL197:
.L146:
	.loc 1 589 2 discriminator 2 view .LVU573
.LBE278:
	.loc 1 616 7 is_stmt 1 view .LVU574
	leaq	.LC19(%rip), %rcx
	movl	$616, %edx
	leaq	__FUNCTION__.4337(%rip), %rsi
	xorl	%eax, %eax
	leaq	.LC11(%rip), %rdi
.LVL198:
	.loc 1 616 7 is_stmt 0 view .LVU575
	call	_panic@PLT
.LVL199:
	.cfi_endproc
.LFE62:
	.size	exo_delete, .-exo_delete
	.p2align 4
	.globl	exo_chain
	.type	exo_chain, @function
exo_chain:
.LVL200:
.LFB63:
	.loc 1 627 1 is_stmt 1 view -0
	.cfi_startproc
	.loc 1 627 1 is_stmt 0 view .LVU577
	endbr64
	.loc 1 628 3 is_stmt 1 view .LVU578
	.loc 1 630 3 view .LVU579
	.loc 1 630 6 is_stmt 0 view .LVU580
	movq	%rdi, %rax
	orq	%rsi, %rax
	je	.L165
	.loc 1 633 3 is_stmt 1 view .LVU581
	.loc 1 633 6 is_stmt 0 view .LVU582
	testq	%rdi, %rdi
	je	.L168
	movq	%rdi, %rax
	.p2align 4,,10
	.p2align 3
.L167:
.LVL201:
	.loc 1 638 15 is_stmt 1 discriminator 3 view .LVU583
	.loc 1 637 40 discriminator 3 view .LVU584
	.loc 1 637 40 is_stmt 0 discriminator 3 view .LVU585
	movq	%rax, %rdx
	.loc 1 637 52 discriminator 3 view .LVU586
	movq	(%rax), %rax
.LVL202:
	.loc 1 637 27 is_stmt 1 discriminator 3 view .LVU587
	.loc 1 637 3 is_stmt 0 discriminator 3 view .LVU588
	testq	%rax, %rax
	jne	.L167
	.loc 1 639 2 is_stmt 1 view .LVU589
	.loc 1 642 3 view .LVU590
	.loc 1 642 14 is_stmt 0 view .LVU591
	movq	%rsi, (%rdx)
	.loc 1 644 3 is_stmt 1 view .LVU592
	.loc 1 644 10 is_stmt 0 view .LVU593
	movq	%rdi, %rax
.LVL203:
	.loc 1 644 10 view .LVU594
	ret
.LVL204:
	.p2align 4,,10
	.p2align 3
.L168:
	.loc 1 644 10 view .LVU595
	movq	%rsi, %rax
.L165:
	.loc 1 645 1 view .LVU596
	ret
	.cfi_endproc
.LFE63:
	.size	exo_chain, .-exo_chain
	.section	.rodata.str1.1
.LC20:
	.string	"not an array"
	.text
	.p2align 4
	.globl	exo_copy
	.type	exo_copy, @function
exo_copy:
.LVL205:
.LFB64:
	.loc 1 650 1 is_stmt 1 view -0
	.cfi_startproc
	.loc 1 650 1 is_stmt 0 view .LVU598
	endbr64
	.loc 1 651 3 is_stmt 1 view .LVU599
	.loc 1 654 3 view .LVU600
	.loc 1 650 1 is_stmt 0 view .LVU601
	pushq	%r13
	.cfi_def_cfa_offset 16
	.cfi_offset 13, -16
	pushq	%r12
	.cfi_def_cfa_offset 24
	.cfi_offset 12, -24
	pushq	%rbp
	.cfi_def_cfa_offset 32
	.cfi_offset 6, -32
	pushq	%rbx
	.cfi_def_cfa_offset 40
	.cfi_offset 3, -40
	subq	$8, %rsp
	.cfi_def_cfa_offset 48
	.loc 1 654 6 view .LVU602
	testq	%rdi, %rdi
	je	.L182
	.loc 1 657 13 view .LVU603
	movl	8(%rdi), %ebp
	movq	%rdi, %rbx
	.loc 1 657 3 is_stmt 1 view .LVU604
.LVL206:
.LBB284:
.LBI284:
	.loc 1 405 1 view .LVU605
.LBB285:
	.loc 1 407 3 view .LVU606
	.loc 1 409 3 view .LVU607
	.loc 1 409 30 is_stmt 0 view .LVU608
	movl	$32, %esi
	movl	$1, %edi
.LVL207:
	.loc 1 409 30 view .LVU609
	call	calloc@PLT
.LVL208:
	movq	%rax, %r12
.LVL209:
	.loc 1 410 3 is_stmt 1 view .LVU610
	.loc 1 410 6 is_stmt 0 view .LVU611
	testq	%rax, %rax
	je	.L191
	.loc 1 412 3 is_stmt 1 view .LVU612
	.loc 1 413 3 view .LVU613
	.loc 1 415 3 view .LVU614
.LVL210:
	.loc 1 415 3 is_stmt 0 view .LVU615
.LBE285:
.LBE284:
	.loc 1 658 3 is_stmt 1 view .LVU616
	.loc 1 658 12 is_stmt 0 view .LVU617
	movdqu	(%rbx), %xmm0
	movdqu	16(%rbx), %xmm1
	movups	%xmm0, (%rax)
	movups	%xmm1, 16(%rax)
	.loc 1 661 3 is_stmt 1 view .LVU618
	.loc 1 661 17 is_stmt 0 view .LVU619
	movq	$0, (%rax)
	.loc 1 663 3 is_stmt 1 view .LVU620
	.loc 1 663 18 is_stmt 0 view .LVU621
	movl	8(%rax), %eax
.LVL211:
	.loc 1 663 3 view .LVU622
	cmpl	$7, %eax
	je	.L173
	ja	.L176
	cmpl	$6, %eax
	jne	.L173
.LBB287:
	.loc 1 677 2 is_stmt 1 view .LVU623
	.loc 1 680 2 view .LVU624
	.loc 1 681 36 is_stmt 0 view .LVU625
	movslq	16(%r12), %rdi
	.loc 1 681 4 view .LVU626
	movl	$8, %esi
	.loc 1 681 36 view .LVU627
	movq	%rdi, %r13
	.loc 1 681 4 view .LVU628
	call	calloc@PLT
.LVL212:
	.loc 1 680 34 view .LVU629
	movq	%rax, 24(%r12)
	.loc 1 683 2 is_stmt 1 view .LVU630
.LVL213:
	.loc 1 683 12 view .LVU631
	.loc 1 683 2 is_stmt 0 view .LVU632
	testl	%r13d, %r13d
	jle	.L173
	.loc 1 685 6 is_stmt 1 view .LVU633
	.loc 1 685 8 is_stmt 0 view .LVU634
	cmpl	$6, %ebp
	jne	.L192
	xorl	%eax, %eax
.LVL214:
	.p2align 4,,10
	.p2align 3
.L180:
	.loc 1 685 8 discriminator 6 view .LVU635
	cmpl	%eax, 16(%rbx)
	jle	.L193
	.loc 1 685 8 discriminator 9 view .LVU636
	movq	24(%rbx), %rdx
	movq	(%rdx,%rax,8), %rcx
	.loc 1 685 254 discriminator 9 view .LVU637
	movq	24(%r12), %rdx
	movq	%rcx, (%rdx,%rax,8)
	.loc 1 683 46 is_stmt 1 discriminator 9 view .LVU638
.LVL215:
	.loc 1 683 12 discriminator 9 view .LVU639
	addq	$1, %rax
.LVL216:
	.loc 1 683 2 is_stmt 0 discriminator 9 view .LVU640
	cmpl	%eax, 16(%r12)
	jg	.L180
.L173:
	.loc 1 683 2 discriminator 9 view .LVU641
.LBE287:
	.loc 1 700 1 view .LVU642
	addq	$8, %rsp
	.cfi_remember_state
	.cfi_def_cfa_offset 40
	movq	%r12, %rax
	popq	%rbx
	.cfi_def_cfa_offset 32
.LVL217:
	.loc 1 700 1 view .LVU643
	popq	%rbp
	.cfi_def_cfa_offset 24
	popq	%r12
	.cfi_def_cfa_offset 16
.LVL218:
	.loc 1 700 1 view .LVU644
	popq	%r13
	.cfi_def_cfa_offset 8
	ret
.LVL219:
	.p2align 4,,10
	.p2align 3
.L176:
	.cfi_restore_state
	.loc 1 663 3 view .LVU645
	cmpl	$8, %eax
	jne	.L194
	.loc 1 691 7 is_stmt 1 view .LVU646
	.loc 1 691 39 is_stmt 0 view .LVU647
	movslq	16(%r12), %r13
	movq	%r13, %rdi
	call	malloc@PLT
.LVL220:
.LBB288:
.LBB289:
	.loc 3 34 10 view .LVU648
	movq	24(%rbx), %rsi
	movq	%r13, %rdx
.LBE289:
.LBE288:
	.loc 1 691 37 view .LVU649
	movq	%rax, 24(%r12)
	.loc 1 692 7 is_stmt 1 view .LVU650
	.loc 1 691 39 is_stmt 0 view .LVU651
	movq	%rax, %rdi
.LVL221:
.LBB291:
.LBI288:
	.loc 3 31 42 is_stmt 1 view .LVU652
.LBB290:
	.loc 3 34 3 view .LVU653
	.loc 3 34 10 is_stmt 0 view .LVU654
	call	memcpy@PLT
.LVL222:
	.loc 3 34 10 view .LVU655
.LBE290:
.LBE291:
	.loc 1 700 1 view .LVU656
	addq	$8, %rsp
	.cfi_remember_state
	.cfi_def_cfa_offset 40
	movq	%r12, %rax
	popq	%rbx
	.cfi_def_cfa_offset 32
.LVL223:
	.loc 1 700 1 view .LVU657
	popq	%rbp
	.cfi_def_cfa_offset 24
	popq	%r12
	.cfi_def_cfa_offset 16
.LVL224:
	.loc 1 700 1 view .LVU658
	popq	%r13
	.cfi_def_cfa_offset 8
.LVL225:
	.loc 1 700 1 view .LVU659
	ret
.LVL226:
	.p2align 4,,10
	.p2align 3
.L182:
	.cfi_restore_state
	.loc 1 700 1 view .LVU660
	addq	$8, %rsp
	.cfi_remember_state
	.cfi_def_cfa_offset 40
	.loc 1 655 11 view .LVU661
	xorl	%r12d, %r12d
	.loc 1 700 1 view .LVU662
	popq	%rbx
	.cfi_def_cfa_offset 32
	movq	%r12, %rax
	popq	%rbp
	.cfi_def_cfa_offset 24
	popq	%r12
	.cfi_def_cfa_offset 16
	popq	%r13
	.cfi_def_cfa_offset 8
	ret
.LVL227:
.L193:
	.cfi_restore_state
.LBB292:
	.loc 1 685 50 discriminator 8 view .LVU663
	leaq	.LC18(%rip), %rcx
.LVL228:
.L190:
	.loc 1 685 50 discriminator 8 view .LVU664
	movl	$685, %edx
	leaq	__FUNCTION__.4362(%rip), %rsi
	leaq	.LC11(%rip), %rdi
	xorl	%eax, %eax
	call	_fatal@PLT
.LVL229:
.L192:
	.loc 1 685 283 discriminator 5 view .LVU665
	leaq	.LC20(%rip), %rcx
	jmp	.L190
.LVL230:
.L191:
	.loc 1 685 283 discriminator 5 view .LVU666
.LBE292:
.LBB293:
.LBB286:
	call	exo_alloc.part.0
.LVL231:
.L194:
	.loc 1 685 283 discriminator 5 view .LVU667
.LBE286:
.LBE293:
	.loc 1 696 7 is_stmt 1 view .LVU668
	leaq	.LC19(%rip), %rcx
	movl	$696, %edx
	leaq	__FUNCTION__.4362(%rip), %rsi
	xorl	%eax, %eax
	leaq	.LC11(%rip), %rdi
	call	_panic@PLT
.LVL232:
	.cfi_endproc
.LFE64:
	.size	exo_copy, .-exo_copy
	.p2align 4
	.globl	exo_deepcopy
	.type	exo_deepcopy, @function
exo_deepcopy:
.LVL233:
.LFB65:
	.loc 1 705 1 view -0
	.cfi_startproc
	.loc 1 705 1 is_stmt 0 view .LVU670
	endbr64
	.loc 1 706 3 is_stmt 1 view .LVU671
	.loc 1 709 3 view .LVU672
	.loc 1 705 1 is_stmt 0 view .LVU673
	pushq	%r13
	.cfi_def_cfa_offset 16
	.cfi_offset 13, -16
	pushq	%r12
	.cfi_def_cfa_offset 24
	.cfi_offset 12, -24
	pushq	%rbp
	.cfi_def_cfa_offset 32
	.cfi_offset 6, -32
	pushq	%rbx
	.cfi_def_cfa_offset 40
	.cfi_offset 3, -40
	subq	$8, %rsp
	.cfi_def_cfa_offset 48
	.loc 1 709 6 view .LVU674
	testq	%rdi, %rdi
	je	.L211
	movq	%rdi, %rbp
	.loc 1 712 3 is_stmt 1 view .LVU675
	.loc 1 712 13 is_stmt 0 view .LVU676
	call	exo_copy
.LVL234:
	.loc 1 712 13 view .LVU677
	cmpl	$8, 8(%rax)
	movq	%rax, %r12
.LVL235:
	.loc 1 713 3 is_stmt 1 view .LVU678
	ja	.L197
	movl	8(%rax), %eax
.LVL236:
	.loc 1 713 3 is_stmt 0 view .LVU679
	leaq	.L199(%rip), %rdx
	movslq	(%rdx,%rax,4), %rax
	addq	%rdx, %rax
	notrack jmp	*%rax
	.section	.rodata
	.align 4
	.align 4
.L199:
	.long	.L195-.L199
	.long	.L195-.L199
	.long	.L195-.L199
	.long	.L195-.L199
	.long	.L202-.L199
	.long	.L201-.L199
	.long	.L200-.L199
	.long	.L195-.L199
	.long	.L198-.L199
	.text
	.p2align 4,,10
	.p2align 3
.L201:
.LBB300:
	.loc 1 732 2 is_stmt 1 view .LVU680
	.loc 1 734 2 view .LVU681
.LVL237:
	.loc 1 735 2 view .LVU682
	.loc 1 735 10 is_stmt 0 view .LVU683
	movq	16(%r12), %rbx
.LVL238:
	.loc 1 735 42 is_stmt 1 view .LVU684
	.loc 1 734 11 is_stmt 0 view .LVU685
	xorl	%ebp, %ebp
.LVL239:
	.loc 1 735 2 view .LVU686
	testq	%rbx, %rbx
	je	.L204
.LVL240:
.L207:
	.loc 1 737 6 is_stmt 1 discriminator 3 view .LVU687
	.loc 1 737 16 is_stmt 0 discriminator 3 view .LVU688
	movq	%rbx, %rdi
	call	exo_deepcopy
.LVL241:
	.loc 1 738 6 is_stmt 1 discriminator 3 view .LVU689
.LBB301:
.LBI301:
	.loc 1 626 1 discriminator 3 view .LVU690
.LBB302:
	.loc 1 628 3 discriminator 3 view .LVU691
	.loc 1 630 3 discriminator 3 view .LVU692
	.loc 1 630 6 is_stmt 0 discriminator 3 view .LVU693
	movq	%rax, %rsi
	orq	%rbp, %rsi
	je	.L214
	.loc 1 633 3 is_stmt 1 view .LVU694
	.loc 1 633 6 is_stmt 0 view .LVU695
	testq	%rbp, %rbp
	je	.L215
	movq	%rbp, %rdx
	.p2align 4,,10
	.p2align 3
.L206:
.LVL242:
	.loc 1 638 15 is_stmt 1 view .LVU696
	.loc 1 637 40 view .LVU697
	.loc 1 637 40 is_stmt 0 view .LVU698
	movq	%rdx, %rcx
	.loc 1 637 52 view .LVU699
	movq	(%rdx), %rdx
.LVL243:
	.loc 1 637 27 is_stmt 1 view .LVU700
	.loc 1 637 3 is_stmt 0 view .LVU701
	testq	%rdx, %rdx
	jne	.L206
	.loc 1 639 2 is_stmt 1 view .LVU702
	.loc 1 642 3 view .LVU703
	.loc 1 642 14 is_stmt 0 view .LVU704
	movq	%rax, (%rcx)
	.loc 1 644 3 is_stmt 1 view .LVU705
.LVL244:
.L205:
	.loc 1 644 3 is_stmt 0 view .LVU706
.LBE302:
.LBE301:
	.loc 1 735 46 is_stmt 1 view .LVU707
	.loc 1 735 49 is_stmt 0 view .LVU708
	movq	(%rbx), %rbx
.LVL245:
	.loc 1 735 42 is_stmt 1 view .LVU709
	.loc 1 735 2 is_stmt 0 view .LVU710
	testq	%rbx, %rbx
	jne	.L207
.LVL246:
.L204:
	.loc 1 740 2 is_stmt 1 view .LVU711
	.loc 1 740 32 is_stmt 0 view .LVU712
	movq	%rbp, 16(%r12)
.LBE300:
	.loc 1 742 7 is_stmt 1 view .LVU713
.LVL247:
.L195:
	.loc 1 766 1 is_stmt 0 view .LVU714
	addq	$8, %rsp
	.cfi_remember_state
	.cfi_def_cfa_offset 40
	movq	%r12, %rax
	popq	%rbx
	.cfi_def_cfa_offset 32
	popq	%rbp
	.cfi_def_cfa_offset 24
	popq	%r12
	.cfi_def_cfa_offset 16
.LVL248:
	.loc 1 766 1 view .LVU715
	popq	%r13
	.cfi_def_cfa_offset 8
	ret
.LVL249:
	.p2align 4,,10
	.p2align 3
.L200:
	.cfi_restore_state
.LBB305:
	.loc 1 749 12 is_stmt 1 view .LVU716
	.loc 1 749 2 is_stmt 0 view .LVU717
	movl	16(%r12), %eax
	xorl	%ebx, %ebx
	testl	%eax, %eax
	jg	.L203
	jmp	.L195
.LVL250:
	.p2align 4,,10
	.p2align 3
.L210:
	.loc 1 751 6 is_stmt 1 view .LVU718
	addq	$1, %rbx
	.loc 1 751 95 is_stmt 0 view .LVU719
	cmpl	$6, 8(%r12)
	jne	.L208
.LVL251:
.L203:
	.loc 1 751 257 discriminator 4 view .LVU720
	cmpl	$6, 8(%rbp)
	jne	.L208
	.loc 1 751 8 discriminator 6 view .LVU721
	cmpl	%ebx, 16(%rbp)
	jle	.L223
	.loc 1 751 248 discriminator 9 view .LVU722
	movq	24(%r12), %rax
	leaq	(%rax,%rbx,8), %r13
	.loc 1 751 8 discriminator 9 view .LVU723
	movq	24(%rbp), %rax
	.loc 1 751 257 discriminator 9 view .LVU724
	movq	(%rax,%rbx,8), %rdi
	call	exo_deepcopy
.LVL252:
	.loc 1 751 254 discriminator 9 view .LVU725
	movq	%rax, 0(%r13)
	.loc 1 749 46 is_stmt 1 discriminator 9 view .LVU726
.LVL253:
	.loc 1 749 12 discriminator 9 view .LVU727
	.loc 1 749 2 is_stmt 0 discriminator 9 view .LVU728
	leal	1(%rbx), %eax
.LVL254:
	.loc 1 749 2 discriminator 9 view .LVU729
	cmpl	%eax, 16(%r12)
	jg	.L210
.LBE305:
	.loc 1 766 1 view .LVU730
	addq	$8, %rsp
	.cfi_remember_state
	.cfi_def_cfa_offset 40
	movq	%r12, %rax
.LVL255:
	.loc 1 766 1 view .LVU731
	popq	%rbx
	.cfi_def_cfa_offset 32
.LVL256:
	.loc 1 766 1 view .LVU732
	popq	%rbp
	.cfi_def_cfa_offset 24
.LVL257:
	.loc 1 766 1 view .LVU733
	popq	%r12
	.cfi_def_cfa_offset 16
.LVL258:
	.loc 1 766 1 view .LVU734
	popq	%r13
	.cfi_def_cfa_offset 8
	ret
.LVL259:
	.p2align 4,,10
	.p2align 3
.L198:
	.cfi_restore_state
	.loc 1 757 7 is_stmt 1 view .LVU735
	.loc 1 757 39 is_stmt 0 view .LVU736
	movslq	16(%r12), %r13
	movq	%r13, %rdi
	call	malloc@PLT
.LVL260:
.LBB306:
.LBB307:
	.loc 3 34 10 view .LVU737
	movq	%r13, %rdx
.LBE307:
.LBE306:
	.loc 1 757 37 view .LVU738
	movq	%rax, 24(%r12)
	.loc 1 758 7 is_stmt 1 view .LVU739
.LBB310:
.LBB308:
	.loc 3 34 10 is_stmt 0 view .LVU740
	movq	24(%rbp), %rsi
.LBE308:
.LBE310:
	.loc 1 757 39 view .LVU741
	movq	%rax, %rdi
.LVL261:
.LBB311:
.LBI306:
	.loc 3 31 42 is_stmt 1 view .LVU742
.LBB309:
	.loc 3 34 3 view .LVU743
	.loc 3 34 10 is_stmt 0 view .LVU744
	call	memcpy@PLT
.LVL262:
	.loc 3 34 10 view .LVU745
.LBE309:
.LBE311:
	.loc 1 766 1 view .LVU746
	addq	$8, %rsp
	.cfi_remember_state
	.cfi_def_cfa_offset 40
	movq	%r12, %rax
	popq	%rbx
	.cfi_def_cfa_offset 32
	popq	%rbp
	.cfi_def_cfa_offset 24
.LVL263:
	.loc 1 766 1 view .LVU747
	popq	%r12
	.cfi_def_cfa_offset 16
.LVL264:
	.loc 1 766 1 view .LVU748
	popq	%r13
	.cfi_def_cfa_offset 8
.LVL265:
	.loc 1 766 1 view .LVU749
	ret
.LVL266:
	.p2align 4,,10
	.p2align 3
.L202:
	.cfi_restore_state
	.loc 1 725 7 is_stmt 1 view .LVU750
	.loc 1 726 19 is_stmt 0 view .LVU751
	movq	16(%rbp), %rdi
	call	mystrdup@PLT
.LVL267:
	.loc 1 725 38 view .LVU752
	movq	%rax, 16(%r12)
	.loc 1 727 7 is_stmt 1 view .LVU753
	.loc 1 766 1 is_stmt 0 view .LVU754
	addq	$8, %rsp
	.cfi_remember_state
	.cfi_def_cfa_offset 40
	movq	%r12, %rax
	popq	%rbx
	.cfi_def_cfa_offset 32
	popq	%rbp
	.cfi_def_cfa_offset 24
.LVL268:
	.loc 1 766 1 view .LVU755
	popq	%r12
	.cfi_def_cfa_offset 16
.LVL269:
	.loc 1 766 1 view .LVU756
	popq	%r13
	.cfi_def_cfa_offset 8
	ret
.LVL270:
	.p2align 4,,10
	.p2align 3
.L211:
	.cfi_restore_state
	.loc 1 766 1 view .LVU757
	addq	$8, %rsp
	.cfi_remember_state
	.cfi_def_cfa_offset 40
	.loc 1 710 11 view .LVU758
	xorl	%r12d, %r12d
	.loc 1 766 1 view .LVU759
	popq	%rbx
	.cfi_def_cfa_offset 32
	movq	%r12, %rax
	popq	%rbp
	.cfi_def_cfa_offset 24
	popq	%r12
	.cfi_def_cfa_offset 16
	popq	%r13
	.cfi_def_cfa_offset 8
	ret
.LVL271:
	.p2align 4,,10
	.p2align 3
.L214:
	.cfi_restore_state
.LBB312:
.LBB304:
.LBB303:
	.loc 1 631 11 view .LVU760
	xorl	%ebp, %ebp
.LVL272:
	.loc 1 631 11 view .LVU761
	jmp	.L205
.LVL273:
	.p2align 4,,10
	.p2align 3
.L215:
	.loc 1 631 11 view .LVU762
.LBE303:
.LBE304:
	.loc 1 737 16 view .LVU763
	movq	%rax, %rbp
.LVL274:
	.loc 1 737 16 view .LVU764
	jmp	.L205
.LVL275:
.L208:
	.loc 1 737 16 view .LVU765
.LBE312:
.LBB313:
	.loc 1 751 35 discriminator 1 view .LVU766
	leaq	.LC20(%rip), %rcx
.L222:
	.loc 1 751 50 discriminator 8 view .LVU767
	movl	$751, %edx
	leaq	__FUNCTION__.4388(%rip), %rsi
	leaq	.LC11(%rip), %rdi
	xorl	%eax, %eax
	call	_fatal@PLT
.LVL276:
.L223:
	.loc 1 751 50 discriminator 8 view .LVU768
	leaq	.LC18(%rip), %rcx
	jmp	.L222
.LVL277:
.L197:
	.loc 1 751 50 discriminator 8 view .LVU769
.LBE313:
	.loc 1 762 7 is_stmt 1 view .LVU770
	leaq	.LC19(%rip), %rcx
	movl	$762, %edx
	leaq	__FUNCTION__.4388(%rip), %rsi
	xorl	%eax, %eax
.LVL278:
	.loc 1 762 7 is_stmt 0 view .LVU771
	leaq	.LC11(%rip), %rdi
	call	_panic@PLT
.LVL279:
	.cfi_endproc
.LFE65:
	.size	exo_deepcopy, .-exo_deepcopy
	.section	.rodata.str1.1
.LC21:
	.string	"%lu"
.LC22:
	.string	"0x%lx"
.LC23:
	.string	"%f"
.LC24:
	.string	", "
.LC25:
	.string	"{%d}["
.LC26:
	.string	"{%d}<\n"
.LC27:
	.string	"%02x"
	.text
	.p2align 4
	.globl	exo_print
	.type	exo_print, @function
exo_print:
.LVL280:
.LFB66:
	.loc 1 771 1 is_stmt 1 view -0
	.cfi_startproc
	.loc 1 771 1 is_stmt 0 view .LVU773
	endbr64
	.loc 1 772 3 is_stmt 1 view .LVU774
	.loc 1 771 1 is_stmt 0 view .LVU775
	pushq	%r15
	.cfi_def_cfa_offset 16
	.cfi_offset 15, -16
	pushq	%r14
	.cfi_def_cfa_offset 24
	.cfi_offset 14, -24
	pushq	%r13
	.cfi_def_cfa_offset 32
	.cfi_offset 13, -32
	pushq	%r12
	.cfi_def_cfa_offset 40
	.cfi_offset 12, -40
	pushq	%rbp
	.cfi_def_cfa_offset 48
	.cfi_offset 6, -48
	movq	%rsi, %rbp
	pushq	%rbx
	.cfi_def_cfa_offset 56
	.cfi_offset 3, -56
	subq	$8, %rsp
	.cfi_def_cfa_offset 64
	.loc 1 773 12 view .LVU776
	testq	%rsi, %rsi
	cmove	stderr(%rip), %rbp
.LVL281:
	.loc 1 775 3 is_stmt 1 view .LVU777
	cmpl	$8, 8(%rdi)
	ja	.L226
	movl	8(%rdi), %eax
	leaq	.L228(%rip), %rdx
	movq	%rdi, %rbx
	movslq	(%rdx,%rax,4), %rax
	addq	%rdx, %rax
	notrack jmp	*%rax
	.section	.rodata
	.align 4
	.align 4
.L228:
	.long	.L236-.L228
	.long	.L235-.L228
	.long	.L234-.L228
	.long	.L233-.L228
	.long	.L232-.L228
	.long	.L231-.L228
	.long	.L230-.L228
	.long	.L229-.L228
	.long	.L227-.L228
	.text
	.p2align 4,,10
	.p2align 3
.L229:
	.loc 1 849 7 view .LVU778
.LVL282:
.LBB314:
.LBI314:
	.loc 2 98 1 view .LVU779
.LBB315:
	.loc 2 100 3 view .LVU780
.LBE315:
.LBE314:
	.loc 1 849 7 is_stmt 0 view .LVU781
	movq	16(%rdi), %rax
.LBB318:
.LBB316:
	.loc 2 100 10 view .LVU782
	movq	%rbp, %rsi
	movq	8(%rax), %rdi
.LVL283:
	.loc 2 100 10 view .LVU783
.LBE316:
.LBE318:
	.loc 1 876 1 view .LVU784
	addq	$8, %rsp
	.cfi_remember_state
	.cfi_def_cfa_offset 56
	popq	%rbx
	.cfi_def_cfa_offset 48
.LVL284:
	.loc 1 876 1 view .LVU785
	popq	%rbp
	.cfi_def_cfa_offset 40
.LVL285:
	.loc 1 876 1 view .LVU786
	popq	%r12
	.cfi_def_cfa_offset 32
	popq	%r13
	.cfi_def_cfa_offset 24
	popq	%r14
	.cfi_def_cfa_offset 16
	popq	%r15
	.cfi_def_cfa_offset 8
.LBB319:
.LBB317:
	.loc 2 100 10 view .LVU787
	jmp	fputs@PLT
.LVL286:
	.p2align 4,,10
	.p2align 3
.L227:
	.cfi_restore_state
	.loc 2 100 10 view .LVU788
.LBE317:
.LBE319:
.LBB320:
	.loc 1 854 2 is_stmt 1 view .LVU789
	.loc 1 856 2 view .LVU790
.LBB321:
.LBI321:
	.loc 2 98 1 view .LVU791
.LBB322:
	.loc 2 100 3 view .LVU792
	.loc 2 100 10 is_stmt 0 view .LVU793
	movl	16(%rdi), %ecx
	leaq	.LC26(%rip), %rdx
	movl	$1, %esi
	xorl	%eax, %eax
	movq	%rbp, %rdi
	call	__fprintf_chk@PLT
.LVL287:
	.loc 2 100 10 view .LVU794
.LBE322:
.LBE321:
	.loc 1 857 2 is_stmt 1 view .LVU795
	.loc 1 857 12 view .LVU796
	.loc 1 857 2 is_stmt 0 view .LVU797
	movl	16(%rbx), %eax
	testl	%eax, %eax
	jle	.L256
	xorl	%r13d, %r13d
	.loc 1 859 9 view .LVU798
	xorl	%r12d, %r12d
	jmp	.L255
.LVL288:
	.p2align 4,,10
	.p2align 3
.L257:
	.loc 1 859 9 view .LVU799
	addq	$1, %r13
.LVL289:
.L255:
	.loc 1 865 6 is_stmt 1 discriminator 2 view .LVU800
.LBB323:
.LBI323:
	.loc 2 98 1 discriminator 2 view .LVU801
.LBB324:
	.loc 2 100 3 discriminator 2 view .LVU802
.LBE324:
.LBE323:
	.loc 1 865 55 is_stmt 0 discriminator 2 view .LVU803
	movq	24(%rbx), %rax
.LBB327:
.LBB325:
	.loc 2 100 10 discriminator 2 view .LVU804
	leaq	.LC27(%rip), %rdx
	movl	$1, %esi
	movq	%rbp, %rdi
.LBE325:
.LBE327:
	.loc 1 865 6 discriminator 2 view .LVU805
	movzbl	(%rax,%r13), %ecx
.LBB328:
.LBB326:
	.loc 2 100 10 discriminator 2 view .LVU806
	xorl	%eax, %eax
	call	__fprintf_chk@PLT
.LVL290:
	.loc 2 100 10 discriminator 2 view .LVU807
.LBE326:
.LBE328:
	.loc 1 857 43 is_stmt 1 discriminator 2 view .LVU808
	leal	1(%r13), %eax
.LVL291:
	.loc 1 857 12 discriminator 2 view .LVU809
	.loc 1 857 2 is_stmt 0 discriminator 2 view .LVU810
	cmpl	%eax, 16(%rbx)
	jle	.L256
	.loc 1 859 6 is_stmt 1 view .LVU811
.LVL292:
	.loc 1 860 6 view .LVU812
	.loc 1 857 2 is_stmt 0 view .LVU813
	imull	$678152731, %eax, %eax
.LVL293:
	.loc 1 859 9 view .LVU814
	xorl	%r12d, %r12d
	.loc 1 857 2 view .LVU815
	addl	$113025454, %eax
	rorl	%eax
	.loc 1 860 17 view .LVU816
	cmpl	$113025454, %eax
	ja	.L257
	.loc 1 862 3 is_stmt 1 view .LVU817
.LVL294:
.LBB329:
.LBI329:
	.loc 2 98 1 view .LVU818
.LBB330:
	.loc 2 100 3 view .LVU819
	.loc 2 100 10 is_stmt 0 view .LVU820
	movq	%rbp, %rsi
	movl	$10, %edi
.LBE330:
.LBE329:
	.loc 1 863 6 view .LVU821
	movl	$1, %r12d
.LBB332:
.LBB331:
	.loc 2 100 10 view .LVU822
	call	fputc@PLT
.LVL295:
	.loc 2 100 10 view .LVU823
.LBE331:
.LBE332:
	.loc 1 863 3 is_stmt 1 view .LVU824
	.loc 1 863 3 is_stmt 0 view .LVU825
	jmp	.L257
.LVL296:
	.p2align 4,,10
	.p2align 3
.L236:
	.loc 1 863 3 view .LVU826
.LBE320:
	.loc 1 778 7 is_stmt 1 view .LVU827
	.loc 1 781 2 view .LVU828
	movq	16(%rdi), %rdx
	leaq	.LC21(%rip), %rsi
.L287:
	.loc 1 876 1 is_stmt 0 view .LVU829
	addq	$8, %rsp
	.cfi_remember_state
	.cfi_def_cfa_offset 56
	.loc 1 788 2 view .LVU830
	movq	%rbp, %rdi
	xorl	%eax, %eax
	.loc 1 876 1 view .LVU831
	popq	%rbx
	.cfi_def_cfa_offset 48
.LVL297:
	.loc 1 876 1 view .LVU832
	popq	%rbp
	.cfi_def_cfa_offset 40
.LVL298:
	.loc 1 876 1 view .LVU833
	popq	%r12
	.cfi_def_cfa_offset 32
	popq	%r13
	.cfi_def_cfa_offset 24
	popq	%r14
	.cfi_def_cfa_offset 16
	popq	%r15
	.cfi_def_cfa_offset 8
	.loc 1 788 2 view .LVU834
	jmp	myfprintf@PLT
.LVL299:
	.p2align 4,,10
	.p2align 3
.L235:
	.cfi_restore_state
	.loc 1 785 7 is_stmt 1 view .LVU835
	.loc 1 788 2 view .LVU836
	movq	16(%rdi), %rdx
	leaq	.LC22(%rip), %rsi
	jmp	.L287
	.p2align 4,,10
	.p2align 3
.L234:
	.loc 1 792 7 view .LVU837
.LVL300:
.LBB339:
.LBI339:
	.loc 2 98 1 view .LVU838
.LBB340:
	.loc 2 100 3 view .LVU839
	.loc 2 100 10 is_stmt 0 view .LVU840
	movsd	16(%rdi), %xmm0
.LBE340:
.LBE339:
	.loc 1 876 1 view .LVU841
	addq	$8, %rsp
	.cfi_remember_state
	.cfi_def_cfa_offset 56
.LBB345:
.LBB341:
	.loc 2 100 10 view .LVU842
	movq	%rbp, %rdi
	leaq	.LC23(%rip), %rdx
.LBE341:
.LBE345:
	.loc 1 876 1 view .LVU843
	popq	%rbx
	.cfi_def_cfa_offset 48
.LVL301:
.LBB346:
.LBB342:
	.loc 2 100 10 view .LVU844
	movl	$1, %esi
.LBE342:
.LBE346:
	.loc 1 876 1 view .LVU845
	popq	%rbp
	.cfi_def_cfa_offset 40
.LVL302:
.LBB347:
.LBB343:
	.loc 2 100 10 view .LVU846
	movl	$1, %eax
.LBE343:
.LBE347:
	.loc 1 876 1 view .LVU847
	popq	%r12
	.cfi_def_cfa_offset 32
	popq	%r13
	.cfi_def_cfa_offset 24
	popq	%r14
	.cfi_def_cfa_offset 16
	popq	%r15
	.cfi_def_cfa_offset 8
.LBB348:
.LBB344:
	.loc 2 100 10 view .LVU848
	jmp	__fprintf_chk@PLT
.LVL303:
	.p2align 4,,10
	.p2align 3
.L233:
	.cfi_restore_state
	.loc 2 100 10 view .LVU849
.LBE344:
.LBE348:
	.loc 1 796 7 is_stmt 1 view .LVU850
.LBB349:
.LBI349:
	.loc 2 98 1 view .LVU851
.LBB350:
	.loc 2 100 3 view .LVU852
	.loc 2 100 10 is_stmt 0 view .LVU853
	movq	%rbp, %rsi
	movl	$39, %edi
	call	fputc@PLT
.LVL304:
	.loc 2 100 10 view .LVU854
.LBE350:
.LBE349:
	.loc 1 797 7 is_stmt 1 view .LVU855
	movzbl	16(%rbx), %edi
	movq	%rbp, %rsi
	call	print_char
.LVL305:
	.loc 1 798 7 view .LVU856
.LBB351:
.LBI351:
	.loc 2 98 1 view .LVU857
.LBB352:
	.loc 2 100 3 view .LVU858
	.loc 2 100 10 is_stmt 0 view .LVU859
	movq	%rbp, %rsi
	movl	$39, %edi
.LVL306:
.L288:
	.loc 2 100 10 view .LVU860
.LBE352:
.LBE351:
	.loc 1 876 1 view .LVU861
	addq	$8, %rsp
	.cfi_remember_state
	.cfi_def_cfa_offset 56
	popq	%rbx
	.cfi_def_cfa_offset 48
	popq	%rbp
	.cfi_def_cfa_offset 40
	popq	%r12
	.cfi_def_cfa_offset 32
	popq	%r13
	.cfi_def_cfa_offset 24
	popq	%r14
	.cfi_def_cfa_offset 16
	popq	%r15
	.cfi_def_cfa_offset 8
.LBB353:
.LBB333:
.LBB334:
	.loc 2 100 10 view .LVU862
	jmp	fputc@PLT
.LVL307:
	.p2align 4,,10
	.p2align 3
.L232:
	.cfi_restore_state
	.loc 2 100 10 view .LVU863
.LBE334:
.LBE333:
.LBE353:
	.loc 1 802 7 is_stmt 1 view .LVU864
.LBB354:
.LBI354:
	.loc 2 98 1 view .LVU865
.LBB355:
	.loc 2 100 3 view .LVU866
	.loc 2 100 10 is_stmt 0 view .LVU867
	movl	$34, %edi
	movq	%rbp, %rsi
	call	fputc@PLT
.LVL308:
	.loc 2 100 10 view .LVU868
.LBE355:
.LBE354:
	.loc 1 803 7 is_stmt 1 view .LVU869
	movq	16(%rbx), %rbx
.LVL309:
.LBB356:
.LBI356:
	.loc 1 321 1 view .LVU870
.LBB357:
	.loc 1 323 9 view .LVU871
	.loc 1 323 10 is_stmt 0 view .LVU872
	movzbl	(%rbx), %edi
	.loc 1 323 9 view .LVU873
	testb	%dil, %dil
	je	.L238
	.p2align 4,,10
	.p2align 3
.L237:
	.loc 1 325 7 is_stmt 1 view .LVU874
	movzbl	%dil, %edi
	movq	%rbp, %rsi
	.loc 1 326 8 is_stmt 0 view .LVU875
	addq	$1, %rbx
.LVL310:
	.loc 1 325 7 view .LVU876
	call	print_char
.LVL311:
	.loc 1 326 7 is_stmt 1 view .LVU877
	.loc 1 323 9 view .LVU878
	.loc 1 323 10 is_stmt 0 view .LVU879
	movzbl	(%rbx), %edi
	.loc 1 323 9 view .LVU880
	testb	%dil, %dil
	jne	.L237
.L238:
.LVL312:
	.loc 1 323 9 view .LVU881
.LBE357:
.LBE356:
	.loc 1 804 7 is_stmt 1 view .LVU882
.LBB358:
.LBI358:
	.loc 2 98 1 view .LVU883
.LBB359:
	.loc 2 100 3 view .LVU884
	.loc 2 100 10 is_stmt 0 view .LVU885
	movq	%rbp, %rsi
	movl	$34, %edi
	jmp	.L288
.LVL313:
	.p2align 4,,10
	.p2align 3
.L231:
	.loc 2 100 10 view .LVU886
.LBE359:
.LBE358:
.LBB360:
	.loc 1 809 2 is_stmt 1 view .LVU887
	.loc 1 811 2 view .LVU888
.LBB361:
.LBI361:
	.loc 2 98 1 view .LVU889
.LBB362:
	.loc 2 100 3 view .LVU890
	.loc 2 100 10 is_stmt 0 view .LVU891
	movq	%rbp, %rsi
	movl	$40, %edi
.LBE362:
.LBE361:
.LBB364:
.LBB365:
	leaq	.LC24(%rip), %r12
.LBE365:
.LBE364:
.LBB367:
.LBB363:
	call	fputc@PLT
.LVL314:
	.loc 2 100 10 view .LVU892
.LBE363:
.LBE367:
	.loc 1 812 2 is_stmt 1 view .LVU893
	.loc 1 812 10 is_stmt 0 view .LVU894
	movq	16(%rbx), %rbx
.LVL315:
	.loc 1 812 38 is_stmt 1 view .LVU895
	.loc 1 812 2 is_stmt 0 view .LVU896
	testq	%rbx, %rbx
	je	.L240
.L239:
	.loc 1 814 6 is_stmt 1 view .LVU897
	movq	%rbp, %rsi
	movq	%rbx, %rdi
	call	exo_print
.LVL316:
	.loc 1 815 6 view .LVU898
	.loc 1 815 9 is_stmt 0 view .LVU899
	cmpq	$0, (%rbx)
	je	.L240
	.loc 1 816 8 is_stmt 1 view .LVU900
.LVL317:
.LBB368:
.LBI364:
	.loc 2 98 1 view .LVU901
.LBB366:
	.loc 2 100 3 view .LVU902
	.loc 2 100 10 is_stmt 0 view .LVU903
	movq	%rbp, %rcx
	movl	$2, %edx
	movl	$1, %esi
	movq	%r12, %rdi
	call	fwrite@PLT
.LVL318:
	.loc 2 100 10 view .LVU904
.LBE366:
.LBE368:
	.loc 1 812 42 is_stmt 1 view .LVU905
	.loc 1 812 45 is_stmt 0 view .LVU906
	movq	(%rbx), %rbx
.LVL319:
	.loc 1 812 38 is_stmt 1 view .LVU907
	.loc 1 812 2 is_stmt 0 view .LVU908
	testq	%rbx, %rbx
	jne	.L239
	.p2align 4,,10
	.p2align 3
.L240:
.LVL320:
	.loc 1 818 2 is_stmt 1 view .LVU909
.LBB369:
.LBI369:
	.loc 2 98 1 view .LVU910
.LBB370:
	.loc 2 100 3 view .LVU911
	.loc 2 100 10 is_stmt 0 view .LVU912
	movq	%rbp, %rsi
	movl	$41, %edi
	jmp	.L288
.LVL321:
	.p2align 4,,10
	.p2align 3
.L230:
	.loc 2 100 10 view .LVU913
.LBE370:
.LBE369:
.LBE360:
.LBB371:
	.loc 1 824 2 is_stmt 1 view .LVU914
	.loc 1 827 2 view .LVU915
	.loc 1 827 33 is_stmt 0 view .LVU916
	movl	16(%rdi), %ecx
.LVL322:
	.loc 1 827 42 is_stmt 1 view .LVU917
	.loc 1 827 2 is_stmt 0 view .LVU918
	movl	%ecx, %edi
	subl	$1, %edi
.LVL323:
	.loc 1 827 2 view .LVU919
	js	.L242
	movslq	%ecx, %rdx
	movslq	%edi, %rax
	movl	%edi, %edi
	.loc 1 829 37 view .LVU920
	movq	24(%rbx), %rsi
	subq	$1, %rdx
	subq	%rdi, %rdx
	jmp	.L243
.LVL324:
	.p2align 4,,10
	.p2align 3
.L291:
	.loc 1 827 53 is_stmt 1 discriminator 2 view .LVU921
	.loc 1 827 42 discriminator 2 view .LVU922
	.loc 1 827 2 is_stmt 0 discriminator 2 view .LVU923
	cmpq	%rax, %rdx
	je	.L242
	.loc 1 829 6 is_stmt 1 discriminator 2 view .LVU924
	subq	$1, %rax
.LVL325:
	.loc 1 829 54 is_stmt 0 discriminator 2 view .LVU925
	cmpl	%eax, %ecx
	jle	.L290
.LVL326:
.L243:
	.loc 1 829 9 discriminator 5 view .LVU926
	cmpq	$0, (%rsi,%rax,8)
	movl	%eax, %r12d
.LVL327:
	.loc 1 829 9 discriminator 5 view .LVU927
	je	.L291
	.loc 1 834 2 is_stmt 1 view .LVU928
.LVL328:
.LBB372:
.LBI372:
	.loc 2 98 1 view .LVU929
.LBB373:
	.loc 2 100 3 view .LVU930
	.loc 2 100 10 is_stmt 0 view .LVU931
	leaq	.LC25(%rip), %rdx
	movl	$1, %esi
	movq	%rbp, %rdi
	xorl	%eax, %eax
.LVL329:
	.loc 2 100 10 view .LVU932
	call	__fprintf_chk@PLT
.LVL330:
	.loc 2 100 10 view .LVU933
.LBE373:
.LBE372:
	.loc 1 835 2 is_stmt 1 view .LVU934
	.loc 1 835 12 view .LVU935
	.loc 1 835 41 is_stmt 0 view .LVU936
	movl	16(%rbx), %edx
	testl	%edx, %edx
	jle	.L248
	testl	%r12d, %r12d
	js	.L248
	xorl	%r14d, %r14d
	.loc 1 835 8 view .LVU937
	xorl	%r13d, %r13d
.LBB375:
.LBB376:
	.loc 2 100 10 view .LVU938
	leaq	.LC24(%rip), %r15
.LVL331:
.L246:
	.loc 2 100 10 view .LVU939
.LBE376:
.LBE375:
	.loc 1 837 6 is_stmt 1 view .LVU940
	.loc 1 837 37 is_stmt 0 view .LVU941
	movq	24(%rbx), %rax
	.loc 1 838 8 view .LVU942
	movq	%rbp, %rsi
	.loc 1 837 37 view .LVU943
	movq	(%rax,%r14), %rdi
	.loc 1 837 9 view .LVU944
	testq	%rdi, %rdi
	je	.L249
.LVL332:
.L292:
	.loc 1 838 8 is_stmt 1 view .LVU945
	call	exo_print
.LVL333:
.L250:
	.loc 1 841 6 view .LVU946
	.loc 1 841 36 is_stmt 0 view .LVU947
	movl	16(%rbx), %eax
	.loc 1 841 41 view .LVU948
	leal	-1(%rax), %edx
	.loc 1 841 44 view .LVU949
	cmpl	%r13d, %edx
	je	.L251
	.loc 1 841 44 view .LVU950
	cmpl	%r12d, %r13d
	je	.L251
	.loc 1 842 8 is_stmt 1 view .LVU951
.LVL334:
.LBB378:
.LBI375:
	.loc 2 98 1 view .LVU952
.LBB377:
	.loc 2 100 3 view .LVU953
	.loc 2 100 10 is_stmt 0 view .LVU954
	movq	%rbp, %rcx
	movl	$2, %edx
	movl	$1, %esi
	movq	%r15, %rdi
	call	fwrite@PLT
.LVL335:
	.loc 2 100 10 view .LVU955
.LBE377:
.LBE378:
	.loc 1 835 55 is_stmt 1 view .LVU956
	.loc 1 835 56 is_stmt 0 view .LVU957
	addl	$1, %r13d
.LVL336:
	.loc 1 835 12 is_stmt 1 view .LVU958
	addq	$8, %r14
	.loc 1 835 41 is_stmt 0 view .LVU959
	cmpl	16(%rbx), %r13d
	jge	.L248
	cmpl	%r12d, %r13d
	jle	.L246
.LVL337:
	.p2align 4,,10
	.p2align 3
.L248:
	.loc 1 844 2 is_stmt 1 view .LVU960
.LBB379:
.LBI379:
	.loc 2 98 1 view .LVU961
.LBB380:
	.loc 2 100 3 view .LVU962
	.loc 2 100 10 is_stmt 0 view .LVU963
	movq	%rbp, %rsi
	movl	$93, %edi
	jmp	.L288
.LVL338:
	.p2align 4,,10
	.p2align 3
.L251:
	.loc 2 100 10 view .LVU964
.LBE380:
.LBE379:
	.loc 1 835 55 is_stmt 1 discriminator 2 view .LVU965
	.loc 1 835 56 is_stmt 0 discriminator 2 view .LVU966
	addl	$1, %r13d
.LVL339:
	.loc 1 835 12 is_stmt 1 discriminator 2 view .LVU967
	addq	$8, %r14
	.loc 1 835 41 is_stmt 0 discriminator 2 view .LVU968
	cmpl	%r12d, %r13d
	jg	.L248
	cmpl	%r13d, %eax
	jle	.L248
	.loc 1 837 6 is_stmt 1 view .LVU969
	.loc 1 837 37 is_stmt 0 view .LVU970
	movq	24(%rbx), %rax
	.loc 1 838 8 view .LVU971
	movq	%rbp, %rsi
	.loc 1 837 37 view .LVU972
	movq	(%rax,%r14), %rdi
	.loc 1 837 9 view .LVU973
	testq	%rdi, %rdi
	jne	.L292
.LVL340:
.L249:
	.loc 1 840 8 is_stmt 1 view .LVU974
.LBB381:
.LBI381:
	.loc 2 98 1 view .LVU975
.LBB382:
	.loc 2 100 3 view .LVU976
	.loc 2 100 10 is_stmt 0 view .LVU977
	movl	$32, %edi
	call	fputc@PLT
.LVL341:
	.loc 2 100 10 view .LVU978
	jmp	.L250
.LVL342:
	.p2align 4,,10
	.p2align 3
.L256:
	.loc 2 100 10 view .LVU979
.LBE382:
.LBE381:
.LBE371:
.LBB384:
	.loc 1 867 2 is_stmt 1 view .LVU980
	.loc 1 867 5 is_stmt 0 view .LVU981
	testl	%r12d, %r12d
	je	.L293
.L259:
	.loc 1 869 2 is_stmt 1 view .LVU982
.LVL343:
.LBB336:
.LBI333:
	.loc 2 98 1 view .LVU983
.LBB335:
	.loc 2 100 3 view .LVU984
	.loc 2 100 10 is_stmt 0 view .LVU985
	movq	%rbp, %rsi
	movl	$62, %edi
	jmp	.L288
.LVL344:
	.p2align 4,,10
	.p2align 3
.L293:
	.loc 2 100 10 view .LVU986
.LBE335:
.LBE336:
	.loc 1 868 4 is_stmt 1 view .LVU987
.LBB337:
.LBI337:
	.loc 2 98 1 view .LVU988
.LBB338:
	.loc 2 100 3 view .LVU989
	.loc 2 100 10 is_stmt 0 view .LVU990
	movq	%rbp, %rsi
	movl	$10, %edi
	call	fputc@PLT
.LVL345:
	jmp	.L259
.LVL346:
	.p2align 4,,10
	.p2align 3
.L242:
	.loc 2 100 10 view .LVU991
.LBE338:
.LBE337:
.LBE384:
.LBB385:
	.loc 1 834 2 is_stmt 1 view .LVU992
.LBB383:
	.loc 2 98 1 view .LVU993
.LBB374:
	.loc 2 100 3 view .LVU994
	.loc 2 100 10 is_stmt 0 view .LVU995
	leaq	.LC25(%rip), %rdx
	movl	$1, %esi
	movq	%rbp, %rdi
	xorl	%eax, %eax
	call	__fprintf_chk@PLT
.LVL347:
	.loc 2 100 10 view .LVU996
.LBE374:
.LBE383:
	.loc 1 835 2 is_stmt 1 view .LVU997
	.loc 1 835 12 view .LVU998
	jmp	.L248
.LVL348:
.L290:
	.loc 1 829 57 is_stmt 0 discriminator 4 view .LVU999
	leaq	.LC18(%rip), %rcx
	movl	$829, %edx
	leaq	__FUNCTION__.4412(%rip), %rsi
	xorl	%eax, %eax
	leaq	.LC11(%rip), %rdi
	call	_fatal@PLT
.LVL349:
.L226:
	.loc 1 829 57 discriminator 4 view .LVU1000
.LBE385:
	.loc 1 874 7 is_stmt 1 view .LVU1001
	leaq	.LC19(%rip), %rcx
	movl	$874, %edx
	leaq	__FUNCTION__.4412(%rip), %rsi
	xorl	%eax, %eax
	leaq	.LC11(%rip), %rdi
.LVL350:
	.loc 1 874 7 is_stmt 0 view .LVU1002
	call	_panic@PLT
.LVL351:
	.cfi_endproc
.LFE66:
	.size	exo_print, .-exo_print
	.section	.rodata.str1.1
.LC28:
	.string	"cannot parse integer literal"
.LC29:
	.string	"cannot parse address literal"
	.section	.rodata.str1.8
	.align 8
.LC30:
	.string	"cannot parse floating point literal"
	.section	.rodata.str1.1
.LC31:
	.string	"mal-formed string constant"
	.section	.rodata.str1.8
	.align 8
.LC32:
	.string	"cannot convert character literal"
	.align 8
.LC33:
	.string	"ANSI C forbids newline in character constant"
	.align 8
.LC34:
	.string	"encountered `\"' embedded in string constant"
	.align 8
.LC35:
	.string	"unexpected blob byte encountered"
	.section	.rodata.str1.1
.LC36:
	.string	"unexpected end-of-file"
.LC37:
	.string	"expected ')'"
.LC38:
	.string	"unexpected ')' encountered"
.LC39:
	.string	"unexpected '<' encountered"
.LC40:
	.string	"unexpected '>' encountered"
.LC41:
	.string	"badly formed array size"
.LC42:
	.string	"expected '}'"
	.section	.rodata.str1.8
	.align 8
.LC43:
	.string	"too many initializers for array"
	.section	.rodata.str1.1
.LC44:
	.string	"expected ']'"
	.section	.rodata.str1.8
	.align 8
.LC45:
	.string	"too many initializers for blob"
	.align 8
.LC46:
	.string	"cannot parse blob byte literal"
	.section	.rodata.str1.1
.LC47:
	.string	"bogus byte value"
.LC48:
	.string	"unexpected character in blob"
.LC49:
	.string	"expected '[' or '<'"
.LC50:
	.string	"unexpected '}' encountered"
.LC51:
	.string	"unexpected ',' encountered"
	.section	.rodata.str1.8
	.align 8
.LC52:
	.string	"unsized array has no initializers"
	.section	.rodata.str1.1
.LC53:
	.string	"elt != NULL"
.LC54:
	.string	"unexpected ']' encountered"
.LC55:
	.string	"bogus token"
	.text
	.p2align 4
	.globl	exo_read
	.type	exo_read, @function
exo_read:
.LVL352:
.LFB68:
	.loc 1 896 1 is_stmt 1 view -0
	.cfi_startproc
	.loc 1 896 1 is_stmt 0 view .LVU1004
	endbr64
	pushq	%r15
	.cfi_def_cfa_offset 16
	.cfi_offset 15, -16
	pushq	%r14
	.cfi_def_cfa_offset 24
	.cfi_offset 14, -24
	pushq	%r13
	.cfi_def_cfa_offset 32
	.cfi_offset 13, -32
	pushq	%r12
	.cfi_def_cfa_offset 40
	.cfi_offset 12, -40
	pushq	%rbp
	.cfi_def_cfa_offset 48
	.cfi_offset 6, -48
	movq	%rdi, %rbp
	pushq	%rbx
	.cfi_def_cfa_offset 56
	.cfi_offset 3, -56
	subq	$1064, %rsp
	.cfi_def_cfa_offset 1120
	.loc 1 896 1 view .LVU1005
	movq	%fs:40, %rax
	movq	%rax, 1048(%rsp)
	xorl	%eax, %eax
	.loc 1 897 3 is_stmt 1 view .LVU1006
	.loc 1 898 3 view .LVU1007
	.loc 1 899 3 view .LVU1008
.LVL353:
	.loc 1 900 3 view .LVU1009
	.loc 1 901 3 view .LVU1010
	.loc 1 904 3 view .LVU1011
	.loc 1 905 12 is_stmt 0 view .LVU1012
	testq	%rdi, %rdi
	cmove	stdin(%rip), %rbp
.LVL354:
	.loc 1 906 3 is_stmt 1 view .LVU1013
.LBB405:
.LBB406:
	.loc 3 90 10 is_stmt 0 view .LVU1014
	leaq	16(%rsp), %r12
.LBE406:
.LBE405:
	.loc 1 906 3 view .LVU1015
	movq	%rbp, %rdi
	call	yy_setstream@PLT
.LVL355:
	.loc 1 909 3 is_stmt 1 view .LVU1016
	.loc 1 909 9 is_stmt 0 view .LVU1017
	call	yylex@PLT
.LVL356:
.LBB409:
.LBB407:
	.loc 3 90 10 view .LVU1018
	movq	yytext(%rip), %rsi
	movl	$1024, %edx
	movq	%r12, %rdi
.LBE407:
.LBE409:
	.loc 1 909 9 view .LVU1019
	movl	%eax, %ebx
.LVL357:
	.loc 1 910 3 is_stmt 1 view .LVU1020
.LBB410:
.LBI405:
	.loc 3 88 42 view .LVU1021
.LBB408:
	.loc 3 90 3 view .LVU1022
	.loc 3 90 10 is_stmt 0 view .LVU1023
	call	__stpcpy_chk@PLT
.LVL358:
	.loc 3 90 10 view .LVU1024
.LBE408:
.LBE410:
	.loc 1 912 3 is_stmt 1 view .LVU1025
	cmpl	$263, %ebx
	jg	.L296
	cmpl	$255, %ebx
	jle	.L428
	subl	$257, %ebx
.LVL359:
	.loc 1 912 3 is_stmt 0 view .LVU1026
	cmpl	$6, %ebx
	ja	.L300
	leaq	.L302(%rip), %rcx
	movslq	(%rcx,%rbx,4), %rdx
	addq	%rcx, %rdx
	notrack jmp	*%rdx
	.section	.rodata
	.align 4
	.align 4
.L302:
	.long	.L308-.L302
	.long	.L307-.L302
	.long	.L306-.L302
	.long	.L305-.L302
	.long	.L304-.L302
	.long	.L303-.L302
	.long	.L382-.L302
	.text
.L382:
	xorl	%r12d, %r12d
	.loc 1 1235 3 is_stmt 1 view .LVU1027
.LVL360:
.L294:
	.loc 1 1236 1 is_stmt 0 view .LVU1028
	movq	1048(%rsp), %rax
	xorq	%fs:40, %rax
	jne	.L429
	addq	$1064, %rsp
	.cfi_remember_state
	.cfi_def_cfa_offset 56
	movq	%r12, %rax
	popq	%rbx
	.cfi_def_cfa_offset 48
	popq	%rbp
	.cfi_def_cfa_offset 40
	popq	%r12
	.cfi_def_cfa_offset 32
	popq	%r13
	.cfi_def_cfa_offset 24
	popq	%r14
	.cfi_def_cfa_offset 16
	popq	%r15
	.cfi_def_cfa_offset 8
	ret
.LVL361:
	.p2align 4,,10
	.p2align 3
.L428:
	.cfi_restore_state
	.loc 1 912 3 view .LVU1029
	cmpl	$93, %ebx
	jg	.L298
	cmpl	$39, %ebx
	jle	.L296
	subl	$40, %ebx
.LVL362:
	.loc 1 912 3 view .LVU1030
	cmpl	$53, %ebx
	ja	.L296
	leaq	.L310(%rip), %rdx
	movslq	(%rdx,%rbx,4), %rax
	addq	%rdx, %rax
	notrack jmp	*%rax
	.section	.rodata
	.align 4
	.align 4
.L310:
	.long	.L316-.L310
	.long	.L315-.L310
	.long	.L296-.L310
	.long	.L296-.L310
	.long	.L314-.L310
	.long	.L296-.L310
	.long	.L296-.L310
	.long	.L296-.L310
	.long	.L296-.L310
	.long	.L296-.L310
	.long	.L296-.L310
	.long	.L296-.L310
	.long	.L296-.L310
	.long	.L296-.L310
	.long	.L296-.L310
	.long	.L296-.L310
	.long	.L296-.L310
	.long	.L296-.L310
	.long	.L296-.L310
	.long	.L296-.L310
	.long	.L313-.L310
	.long	.L296-.L310
	.long	.L312-.L310
	.long	.L296-.L310
	.long	.L296-.L310
	.long	.L296-.L310
	.long	.L296-.L310
	.long	.L296-.L310
	.long	.L296-.L310
	.long	.L296-.L310
	.long	.L296-.L310
	.long	.L296-.L310
	.long	.L296-.L310
	.long	.L296-.L310
	.long	.L296-.L310
	.long	.L296-.L310
	.long	.L296-.L310
	.long	.L296-.L310
	.long	.L296-.L310
	.long	.L296-.L310
	.long	.L296-.L310
	.long	.L296-.L310
	.long	.L296-.L310
	.long	.L296-.L310
	.long	.L296-.L310
	.long	.L296-.L310
	.long	.L296-.L310
	.long	.L296-.L310
	.long	.L296-.L310
	.long	.L296-.L310
	.long	.L296-.L310
	.long	.L311-.L310
	.long	.L296-.L310
	.long	.L309-.L310
	.text
.LVL363:
	.p2align 4,,10
	.p2align 3
.L298:
	.loc 1 912 3 view .LVU1031
	cmpl	$123, %ebx
	jne	.L430
.LBB411:
	.loc 1 1045 2 is_stmt 1 view .LVU1032
	.loc 1 1046 2 view .LVU1033
	.loc 1 1049 2 view .LVU1034
	.loc 1 1049 8 is_stmt 0 view .LVU1035
	movq	%rbp, %rdi
	call	exo_read
.LVL364:
	movq	%rax, %rdi
.LVL365:
	.loc 1 1050 2 is_stmt 1 view .LVU1036
	.loc 1 1050 5 is_stmt 0 view .LVU1037
	testq	%rax, %rax
	je	.L343
	.loc 1 1050 11 discriminator 1 view .LVU1038
	movl	8(%rax), %ecx
	testl	%ecx, %ecx
	jne	.L343
	.loc 1 1054 2 is_stmt 1 view .LVU1039
	.loc 1 1054 7 is_stmt 0 view .LVU1040
	movq	16(%rax), %rbx
.LVL366:
	.loc 1 1057 2 is_stmt 1 view .LVU1041
	call	exo_delete
.LVL367:
	.loc 1 1060 2 view .LVU1042
	.loc 1 1060 8 is_stmt 0 view .LVU1043
	call	yylex@PLT
.LVL368:
	.loc 1 1061 2 is_stmt 1 view .LVU1044
	.loc 1 1061 5 is_stmt 0 view .LVU1045
	cmpl	$125, %eax
	jne	.L431
	.loc 1 1064 2 is_stmt 1 view .LVU1046
	.loc 1 1064 8 is_stmt 0 view .LVU1047
	call	yylex@PLT
.LVL369:
	.loc 1 1065 2 is_stmt 1 view .LVU1048
	cmpl	$60, %eax
	je	.L346
	cmpl	$91, %eax
	jne	.L347
	.loc 1 1069 6 view .LVU1049
	.loc 1 1069 12 is_stmt 0 view .LVU1050
	movl	%ebx, %esi
	xorl	%edx, %edx
	movl	$6, %edi
	xorl	%eax, %eax
.LVL370:
	.loc 1 1069 12 view .LVU1051
	call	exo_new
.LVL371:
	xorl	%ebx, %ebx
.LVL372:
	.loc 1 1069 12 view .LVU1052
	movq	%rax, %r12
.LVL373:
	.loc 1 1072 6 is_stmt 1 view .LVU1053
	.loc 1 1072 10 is_stmt 0 view .LVU1054
	call	yy_nextchar@PLT
.LVL374:
	.loc 1 1072 9 view .LVU1055
	cmpl	$93, %eax
	je	.L357
	.p2align 4,,10
	.p2align 3
.L348:
.LVL375:
	.loc 1 1076 3 is_stmt 1 view .LVU1056
	.loc 1 1077 5 view .LVU1057
	movl	%ebx, %r13d
	.loc 1 1077 8 is_stmt 0 view .LVU1058
	cmpl	%ebx, 16(%r12)
	je	.L432
	.loc 1 1081 5 is_stmt 1 view .LVU1059
	.loc 1 1081 9 is_stmt 0 view .LVU1060
	call	yy_nextchar@PLT
.LVL376:
	movl	%eax, %r8d
	.loc 1 1083 13 view .LVU1061
	xorl	%eax, %eax
	.loc 1 1081 8 view .LVU1062
	cmpl	$44, %r8d
	je	.L351
	.loc 1 1087 9 is_stmt 1 view .LVU1063
	.loc 1 1087 15 is_stmt 0 view .LVU1064
	movq	%rbp, %rdi
	call	exo_read
.LVL377:
	.loc 1 1088 9 is_stmt 1 view .LVU1065
	.loc 1 1088 12 is_stmt 0 view .LVU1066
	testq	%rax, %rax
	je	.L352
.LVL378:
.L351:
	.loc 1 1091 5 is_stmt 1 view .LVU1067
	.loc 1 1091 91 is_stmt 0 view .LVU1068
	cmpl	$6, 8(%r12)
	jne	.L433
	.loc 1 1091 201 discriminator 2 view .LVU1069
	cmpl	%r13d, 16(%r12)
	jle	.L434
	.loc 1 1091 247 discriminator 4 view .LVU1070
	movq	24(%r12), %rdx
	movq	%rax, (%rdx,%rbx,8)
	.loc 1 1092 5 is_stmt 1 discriminator 4 view .LVU1071
.LVL379:
	.loc 1 1095 5 discriminator 4 view .LVU1072
	.loc 1 1095 9 is_stmt 0 discriminator 4 view .LVU1073
	call	yy_nextchar@PLT
.LVL380:
	.loc 1 1095 8 discriminator 4 view .LVU1074
	cmpl	$44, %eax
	je	.L435
	.loc 1 1097 11 is_stmt 1 view .LVU1075
	.loc 1 1097 12 is_stmt 0 view .LVU1076
	call	yy_nextchar@PLT
.LVL381:
	addq	$1, %rbx
.LVL382:
	.loc 1 1097 3 view .LVU1077
	cmpl	$93, %eax
	jne	.L348
.LVL383:
.L357:
	.loc 1 1101 6 is_stmt 1 view .LVU1078
	.loc 1 1101 12 is_stmt 0 view .LVU1079
	call	yylex@PLT
.LVL384:
	.loc 1 1102 6 is_stmt 1 view .LVU1080
	.loc 1 1102 9 is_stmt 0 view .LVU1081
	cmpl	$93, %eax
	je	.L294
.LVL385:
.L349:
	.loc 1 1103 8 is_stmt 1 view .LVU1082
	leaq	.LC44(%rip), %rdi
	call	exo_err
.LVL386:
	.p2align 4,,10
	.p2align 3
.L430:
	.loc 1 1103 8 is_stmt 0 view .LVU1083
.LBE411:
	.loc 1 912 3 view .LVU1084
	cmpl	$125, %ebx
	jne	.L296
	.loc 1 1156 7 is_stmt 1 view .LVU1085
	leaq	.LC50(%rip), %rdi
	call	exo_err
.LVL387:
.L311:
.LBB415:
	.loc 1 1165 2 view .LVU1086
	.loc 1 1166 2 view .LVU1087
	.loc 1 1169 2 view .LVU1088
	.loc 1 1170 2 view .LVU1089
	.loc 1 1170 6 is_stmt 0 view .LVU1090
	call	yy_nextchar@PLT
.LVL388:
	.loc 1 1170 5 view .LVU1091
	cmpl	$93, %eax
	je	.L436
	movl	$1, %r12d
	.loc 1 1169 7 view .LVU1092
	xorl	%ebx, %ebx
.LVL389:
	.p2align 4,,10
	.p2align 3
.L364:
	.loc 1 1174 2 is_stmt 1 view .LVU1093
	.loc 1 1176 4 view .LVU1094
	.loc 1 1176 8 is_stmt 0 view .LVU1095
	call	yy_nextchar@PLT
.LVL390:
	.loc 1 1176 7 view .LVU1096
	cmpl	$44, %eax
	je	.L437
	.loc 1 1182 8 is_stmt 1 view .LVU1097
	.loc 1 1182 14 is_stmt 0 view .LVU1098
	movq	%rbp, %rdi
	call	exo_read
.LVL391:
	.loc 1 1183 8 is_stmt 1 view .LVU1099
	.loc 1 1183 11 is_stmt 0 view .LVU1100
	testq	%rax, %rax
	je	.L352
	.loc 1 1186 4 is_stmt 1 view .LVU1101
	.loc 1 1186 7 is_stmt 0 view .LVU1102
	movl	%r12d, %r13d
.LVL392:
	.loc 1 1187 4 is_stmt 1 view .LVU1103
.LBB416:
.LBI416:
	.loc 1 626 1 view .LVU1104
.LBB417:
	.loc 1 628 3 view .LVU1105
	.loc 1 630 3 view .LVU1106
.L367:
	.loc 1 633 3 view .LVU1107
	.loc 1 633 6 is_stmt 0 view .LVU1108
	testq	%rbx, %rbx
	je	.L389
	.loc 1 633 6 view .LVU1109
	movq	%rbx, %rdx
	.p2align 4,,10
	.p2align 3
.L369:
.LVL393:
	.loc 1 638 15 is_stmt 1 view .LVU1110
	.loc 1 637 40 view .LVU1111
	.loc 1 637 40 is_stmt 0 view .LVU1112
	movq	%rdx, %rcx
	.loc 1 637 52 view .LVU1113
	movq	(%rdx), %rdx
.LVL394:
	.loc 1 637 27 is_stmt 1 view .LVU1114
	.loc 1 637 3 is_stmt 0 view .LVU1115
	testq	%rdx, %rdx
	jne	.L369
	.loc 1 639 2 is_stmt 1 view .LVU1116
	.loc 1 642 3 view .LVU1117
	.loc 1 642 14 is_stmt 0 view .LVU1118
	movq	%rax, (%rcx)
	.loc 1 644 3 is_stmt 1 view .LVU1119
.LVL395:
.L366:
	.loc 1 644 3 is_stmt 0 view .LVU1120
.LBE417:
.LBE416:
	.loc 1 1190 4 is_stmt 1 view .LVU1121
	.loc 1 1190 8 is_stmt 0 view .LVU1122
	call	yy_nextchar@PLT
.LVL396:
	.loc 1 1190 7 view .LVU1123
	cmpl	$44, %eax
	je	.L438
.L370:
	.loc 1 1192 10 is_stmt 1 view .LVU1124
	.loc 1 1192 11 is_stmt 0 view .LVU1125
	call	yy_nextchar@PLT
.LVL397:
	addl	$1, %r12d
.LVL398:
	.loc 1 1192 2 view .LVU1126
	cmpl	$93, %eax
	jne	.L364
.L372:
	.loc 1 1195 2 is_stmt 1 view .LVU1127
	.loc 1 1195 8 is_stmt 0 view .LVU1128
	call	yylex@PLT
.LVL399:
	.loc 1 1196 2 is_stmt 1 view .LVU1129
	.loc 1 1196 5 is_stmt 0 view .LVU1130
	cmpl	$93, %eax
	jne	.L349
	.loc 1 1200 1 is_stmt 1 view .LVU1131
	.loc 1 1201 2 view .LVU1132
	.loc 1 1201 8 is_stmt 0 view .LVU1133
	xorl	%edx, %edx
	movl	%r13d, %esi
	movl	$6, %edi
	xorl	%eax, %eax
.LVL400:
	.loc 1 1201 8 view .LVU1134
	call	exo_new
.LVL401:
	.loc 1 1215 237 view .LVU1135
	movslq	%r13d, %r15
	.loc 1 1204 8 view .LVU1136
	xorl	%ebp, %ebp
.LVL402:
	.loc 1 1201 8 view .LVU1137
	movq	%rax, %r12
.LVL403:
	.loc 1 1204 2 is_stmt 1 view .LVU1138
	.loc 1 1204 21 view .LVU1139
	.loc 1 1215 237 is_stmt 0 view .LVU1140
	salq	$3, %r15
	jmp	.L380
.LVL404:
	.p2align 4,,10
	.p2align 3
.L374:
	.loc 1 1215 3 is_stmt 1 view .LVU1141
	.loc 1 1215 89 is_stmt 0 view .LVU1142
	cmpl	$6, %eax
	jne	.L439
	.loc 1 1215 199 discriminator 2 view .LVU1143
	cmpl	%r13d, 16(%r12)
	jle	.L440
	.loc 1 1215 245 discriminator 4 view .LVU1144
	movq	24(%r12), %rax
	movq	%rbx, (%rax,%r15)
	.loc 1 1216 3 is_stmt 1 discriminator 4 view .LVU1145
	.loc 1 1216 13 is_stmt 0 discriminator 4 view .LVU1146
	movq	$0, (%rbx)
.L377:
	.loc 1 1204 28 is_stmt 1 discriminator 2 view .LVU1147
	.loc 1 1204 29 is_stmt 0 discriminator 2 view .LVU1148
	addl	$1, %ebp
.LVL405:
	.loc 1 1204 21 is_stmt 1 discriminator 2 view .LVU1149
	.loc 1 1204 2 is_stmt 0 discriminator 2 view .LVU1150
	cmpl	%r13d, %ebp
	je	.L294
	.loc 1 1204 35 view .LVU1151
	movq	%r14, %rbx
.LVL406:
.L380:
	.loc 1 1206 5 is_stmt 1 view .LVU1152
	.loc 1 1206 48 is_stmt 0 view .LVU1153
	testq	%rbx, %rbx
	je	.L441
	.loc 1 1207 6 is_stmt 1 view .LVU1154
	.loc 1 1208 9 is_stmt 0 view .LVU1155
	cmpl	$9, 8(%rbx)
	.loc 1 1207 15 view .LVU1156
	movq	(%rbx), %r14
.LVL407:
	.loc 1 1208 6 is_stmt 1 view .LVU1157
	movl	8(%r12), %eax
	.loc 1 1208 9 is_stmt 0 view .LVU1158
	jne	.L374
	.loc 1 1210 3 is_stmt 1 view .LVU1159
	.loc 1 1210 89 is_stmt 0 view .LVU1160
	cmpl	$6, %eax
	jne	.L442
	.loc 1 1210 199 discriminator 2 view .LVU1161
	cmpl	%r13d, 16(%r12)
	jle	.L443
	.loc 1 1210 245 discriminator 4 view .LVU1162
	movq	24(%r12), %rax
	.loc 1 1211 3 discriminator 4 view .LVU1163
	movq	%r12, %rdi
	.loc 1 1210 245 discriminator 4 view .LVU1164
	movq	$0, (%rax,%r15)
	.loc 1 1211 3 is_stmt 1 discriminator 4 view .LVU1165
	call	exo_delete
.LVL408:
	jmp	.L377
.LVL409:
.L308:
	.loc 1 1211 3 is_stmt 0 discriminator 4 view .LVU1166
.LBE415:
.LBB422:
	.loc 1 937 2 is_stmt 1 view .LVU1167
	.loc 1 940 1 view .LVU1168
	.loc 1 940 3 is_stmt 0 view .LVU1169
	call	__errno_location@PLT
.LVL410:
	.loc 1 942 13 view .LVU1170
	leaq	8(%rsp), %rsi
	movq	%r12, %rdi
	movl	$16, %edx
	.loc 1 940 7 view .LVU1171
	movl	$0, (%rax)
	.loc 1 942 2 is_stmt 1 view .LVU1172
	.loc 1 940 3 is_stmt 0 view .LVU1173
	movq	%rax, %rbx
	.loc 1 942 13 view .LVU1174
	call	myatoq@PLT
.LVL411:
	.loc 1 946 5 view .LVU1175
	movl	(%rbx), %edi
	.loc 1 942 13 view .LVU1176
	movq	%rax, %rsi
.LVL412:
	.loc 1 946 2 is_stmt 1 view .LVU1177
	.loc 1 946 5 is_stmt 0 view .LVU1178
	testl	%edi, %edi
	jne	.L320
	.loc 1 946 16 discriminator 1 view .LVU1179
	movq	8(%rsp), %rax
.LVL413:
	.loc 1 946 12 discriminator 1 view .LVU1180
	cmpb	$0, (%rax)
	jne	.L320
	.loc 1 949 6 is_stmt 1 view .LVU1181
	.loc 1 949 12 is_stmt 0 view .LVU1182
	movl	$1, %edi
	xorl	%eax, %eax
	call	exo_new
.LVL414:
	.loc 1 949 12 view .LVU1183
	movq	%rax, %r12
.LVL415:
	.loc 1 949 10 view .LVU1184
	jmp	.L294
.LVL416:
.L306:
	.loc 1 949 10 view .LVU1185
.LBE422:
.LBB423:
	.loc 1 975 2 is_stmt 1 view .LVU1186
	.loc 1 977 2 view .LVU1187
.LBB424:
.LBI424:
	.loc 1 204 1 view .LVU1188
.LBB425:
	.loc 1 206 3 view .LVU1189
	.loc 1 208 3 view .LVU1190
	.loc 1 208 6 is_stmt 0 view .LVU1191
	cmpb	$39, 16(%rsp)
	jne	.L322
	.loc 1 208 25 view .LVU1192
	subq	%r12, %rax
	.loc 1 208 20 view .LVU1193
	cmpb	$39, 15(%rsp,%rax)
	jne	.L322
	.loc 1 211 3 is_stmt 1 view .LVU1194
	.loc 1 211 8 is_stmt 0 view .LVU1195
	movzbl	17(%rsp), %esi
	.loc 1 211 6 view .LVU1196
	cmpb	$92, %sil
	je	.L324
	.loc 1 213 7 is_stmt 1 view .LVU1197
.LVL417:
	.loc 1 214 7 view .LVU1198
	.loc 1 214 10 is_stmt 0 view .LVU1199
	cmpb	$39, 18(%rsp)
	jne	.L444
	.loc 1 216 7 is_stmt 1 view .LVU1200
	.loc 1 217 2 view .LVU1201
	.loc 1 217 8 is_stmt 0 view .LVU1202
	leaq	18(%rsp), %rax
	movq	%rax, 8(%rsp)
	.loc 1 226 3 is_stmt 1 view .LVU1203
	.loc 1 228 3 view .LVU1204
	.loc 1 231 3 view .LVU1205
.LVL418:
	.loc 1 231 3 is_stmt 0 view .LVU1206
.LBE425:
.LBE424:
	.loc 1 978 2 is_stmt 1 view .LVU1207
.L326:
	.loc 1 980 2 view .LVU1208
	.loc 1 980 8 is_stmt 0 view .LVU1209
	movl	$3, %edi
	xorl	%eax, %eax
	call	exo_new
.LVL419:
	.loc 1 980 8 view .LVU1210
	movq	%rax, %r12
.LVL420:
	.loc 1 980 8 view .LVU1211
.LBE423:
	.loc 1 982 7 is_stmt 1 view .LVU1212
	jmp	.L294
.LVL421:
.L305:
.LBB432:
	.loc 1 986 2 view .LVU1213
	.loc 1 988 2 view .LVU1214
.LBB433:
.LBB434:
	.loc 1 290 21 is_stmt 0 view .LVU1215
	subq	%r12, %rax
	movq	%r12, 8(%rsp)
.LVL422:
	.loc 1 290 21 view .LVU1216
.LBE434:
.LBI433:
	.loc 1 285 1 is_stmt 1 view .LVU1217
.LBB435:
	.loc 1 287 3 view .LVU1218
	.loc 1 290 3 view .LVU1219
	.loc 1 290 14 is_stmt 0 view .LVU1220
	leaq	1(%rax), %rdi
	call	malloc@PLT
.LVL423:
	.loc 1 292 21 view .LVU1221
	cmpb	$34, 16(%rsp)
	.loc 1 290 14 view .LVU1222
	movq	%rax, %rbp
.LVL424:
	.loc 1 292 3 is_stmt 1 view .LVU1223
	.loc 1 292 21 is_stmt 0 view .LVU1224
	jne	.L445
	.loc 1 296 3 is_stmt 1 view .LVU1225
	.loc 1 298 10 is_stmt 0 view .LVU1226
	movzbl	17(%rsp), %eax
.LVL425:
	.loc 1 296 6 view .LVU1227
	leaq	17(%rsp), %rdi
	.loc 1 290 5 view .LVU1228
	movq	%rbp, %rbx
	.loc 1 296 6 view .LVU1229
	movq	%rdi, 8(%rsp)
	.loc 1 298 3 is_stmt 1 view .LVU1230
	.loc 1 298 9 view .LVU1231
	testb	%al, %al
	je	.L328
	.loc 1 301 16 is_stmt 0 view .LVU1232
	leaq	8(%rsp), %r12
	jmp	.L334
.LVL426:
	.p2align 4,,10
	.p2align 3
.L332:
	.loc 1 311 11 is_stmt 1 view .LVU1233
	.loc 1 312 13 view .LVU1234
	.loc 1 312 18 is_stmt 0 view .LVU1235
	movb	%al, (%rbx)
	.loc 1 312 15 view .LVU1236
	addq	$1, %rbx
.LVL427:
.L333:
	.loc 1 313 11 is_stmt 1 view .LVU1237
	.loc 1 313 14 is_stmt 0 view .LVU1238
	addq	$1, %rdi
	movq	%rdi, 8(%rsp)
.LVL428:
.L330:
	.loc 1 298 9 is_stmt 1 view .LVU1239
	.loc 1 298 10 is_stmt 0 view .LVU1240
	movzbl	(%rdi), %eax
	.loc 1 298 9 view .LVU1241
	testb	%al, %al
	je	.L328
.L334:
	.loc 1 300 7 is_stmt 1 view .LVU1242
	.loc 1 300 10 is_stmt 0 view .LVU1243
	cmpb	$92, %al
	je	.L446
	.loc 1 305 11 is_stmt 1 view .LVU1244
	.loc 1 305 14 is_stmt 0 view .LVU1245
	cmpb	$10, %al
	je	.L447
.L331:
	.loc 1 308 11 is_stmt 1 view .LVU1246
	.loc 1 308 14 is_stmt 0 view .LVU1247
	cmpb	$34, %al
	jne	.L332
	.loc 1 308 27 view .LVU1248
	cmpb	$0, 1(%rdi)
	je	.L333
	.loc 1 309 13 is_stmt 1 view .LVU1249
	leaq	.LC34(%rip), %rcx
	movl	$309, %edx
	leaq	__FUNCTION__.4245(%rip), %rsi
	xorl	%eax, %eax
	leaq	.LC11(%rip), %rdi
	call	_panic@PLT
.LVL429:
.L304:
	.loc 1 309 13 is_stmt 0 view .LVU1250
.LBE435:
.LBE433:
.LBE432:
	.loc 1 995 7 is_stmt 1 view .LVU1251
	.loc 1 995 13 is_stmt 0 view .LVU1252
	movq	%r12, %rsi
	movl	$7, %edi
	xorl	%eax, %eax
	call	exo_new
.LVL430:
	movq	%rax, %r12
.LVL431:
	.loc 1 996 7 is_stmt 1 view .LVU1253
	jmp	.L294
.LVL432:
.L316:
.LBB444:
	.loc 1 1004 2 view .LVU1254
	.loc 1 1006 2 view .LVU1255
	.loc 1 1006 8 is_stmt 0 view .LVU1256
	xorl	%esi, %esi
	movl	$5, %edi
	xorl	%eax, %eax
	call	exo_new
.LVL433:
	movq	%rax, %r12
.LVL434:
	.p2align 4,,10
	.p2align 3
.L424:
	.loc 1 1008 2 is_stmt 1 view .LVU1257
	.loc 1 1008 6 is_stmt 0 view .LVU1258
	call	yy_nextchar@PLT
.LVL435:
	.loc 1 1008 5 view .LVU1259
	cmpl	$41, %eax
	je	.L342
.L335:
	.loc 1 1011 6 is_stmt 1 view .LVU1260
	.loc 1 1012 8 view .LVU1261
	.loc 1 1012 14 is_stmt 0 view .LVU1262
	movq	%rbp, %rdi
	call	exo_read
.LVL436:
	.loc 1 1013 8 is_stmt 1 view .LVU1263
	.loc 1 1013 11 is_stmt 0 view .LVU1264
	testq	%rax, %rax
	je	.L352
	.loc 1 1015 8 is_stmt 1 view .LVU1265
	.loc 1 1016 3 is_stmt 0 view .LVU1266
	movq	16(%r12), %rsi
.LVL437:
.LBB445:
.LBI445:
	.loc 1 626 1 is_stmt 1 view .LVU1267
.LBB446:
	.loc 1 628 3 view .LVU1268
	.loc 1 630 3 view .LVU1269
	.loc 1 633 3 view .LVU1270
	.loc 1 633 6 is_stmt 0 view .LVU1271
	testq	%rsi, %rsi
	je	.L384
	movq	%rsi, %rdx
	.p2align 4,,10
	.p2align 3
.L339:
.LVL438:
	.loc 1 638 15 is_stmt 1 view .LVU1272
	.loc 1 637 40 view .LVU1273
	.loc 1 637 40 is_stmt 0 view .LVU1274
	movq	%rdx, %rcx
	.loc 1 637 52 view .LVU1275
	movq	(%rdx), %rdx
.LVL439:
	.loc 1 637 27 is_stmt 1 view .LVU1276
	.loc 1 637 3 is_stmt 0 view .LVU1277
	testq	%rdx, %rdx
	jne	.L339
	.loc 1 639 2 is_stmt 1 view .LVU1278
	.loc 1 642 3 view .LVU1279
	.loc 1 642 14 is_stmt 0 view .LVU1280
	movq	%rax, (%rcx)
	.loc 1 644 3 is_stmt 1 view .LVU1281
.LVL440:
.L338:
	.loc 1 644 3 is_stmt 0 view .LVU1282
.LBE446:
.LBE445:
	.loc 1 1015 34 view .LVU1283
	movq	%rsi, 16(%r12)
	.loc 1 1019 8 is_stmt 1 view .LVU1284
	.loc 1 1019 12 is_stmt 0 view .LVU1285
	call	yy_nextchar@PLT
.LVL441:
	.loc 1 1019 11 view .LVU1286
	cmpl	$44, %eax
	jne	.L424
	.loc 1 1020 3 is_stmt 1 view .LVU1287
	call	yylex@PLT
.LVL442:
	.loc 1 1021 14 view .LVU1288
	.loc 1 1021 15 is_stmt 0 view .LVU1289
	call	yy_nextchar@PLT
.LVL443:
	.loc 1 1021 6 view .LVU1290
	cmpl	$41, %eax
	jne	.L335
	.p2align 4,,10
	.p2align 3
.L342:
	.loc 1 1025 2 is_stmt 1 view .LVU1291
	.loc 1 1025 8 is_stmt 0 view .LVU1292
	call	yylex@PLT
.LVL444:
	.loc 1 1026 2 is_stmt 1 view .LVU1293
	.loc 1 1026 5 is_stmt 0 view .LVU1294
	cmpl	$41, %eax
	je	.L294
	.loc 1 1027 4 is_stmt 1 view .LVU1295
	leaq	.LC37(%rip), %rdi
	call	exo_err
.LVL445:
.L307:
	.loc 1 1027 4 is_stmt 0 view .LVU1296
.LBE444:
.LBB449:
	.loc 1 958 2 is_stmt 1 view .LVU1297
	.loc 1 961 1 view .LVU1298
	.loc 1 961 3 is_stmt 0 view .LVU1299
	call	__errno_location@PLT
.LVL446:
	.loc 1 962 14 view .LVU1300
	leaq	8(%rsp), %rsi
	movq	%r12, %rdi
	.loc 1 961 7 view .LVU1301
	movl	$0, (%rax)
	.loc 1 962 2 is_stmt 1 view .LVU1302
	.loc 1 961 3 is_stmt 0 view .LVU1303
	movq	%rax, %rbx
	.loc 1 962 14 view .LVU1304
	call	strtod@PLT
.LVL447:
	.loc 1 963 2 is_stmt 1 view .LVU1305
	.loc 1 963 5 is_stmt 0 view .LVU1306
	movl	(%rbx), %esi
	testl	%esi, %esi
	jne	.L321
	.loc 1 963 16 discriminator 1 view .LVU1307
	movq	8(%rsp), %rax
	.loc 1 963 12 discriminator 1 view .LVU1308
	cmpb	$0, (%rax)
	jne	.L321
	.loc 1 966 6 is_stmt 1 view .LVU1309
	.loc 1 966 12 is_stmt 0 view .LVU1310
	movl	$2, %edi
	movl	$1, %eax
	call	exo_new
.LVL448:
	.loc 1 966 12 view .LVU1311
	movq	%rax, %r12
.LVL449:
	.loc 1 966 10 view .LVU1312
	jmp	.L294
.LVL450:
	.p2align 4,,10
	.p2align 3
.L446:
	.loc 1 966 10 view .LVU1313
.LBE449:
.LBB450:
.LBB440:
.LBB436:
	.loc 1 301 9 is_stmt 1 view .LVU1314
	.loc 1 301 16 is_stmt 0 view .LVU1315
	addq	$1, %rdi
	movq	%r12, %rsi
	.loc 1 301 11 view .LVU1316
	addq	$1, %rbx
.LVL451:
	.loc 1 301 16 view .LVU1317
	call	intern_escape
.LVL452:
	.loc 1 301 16 view .LVU1318
	movq	8(%rsp), %rdi
	.loc 1 301 14 view .LVU1319
	movb	%al, -1(%rbx)
	jmp	.L330
.LVL453:
	.p2align 4,,10
	.p2align 3
.L437:
	.loc 1 301 14 view .LVU1320
.LBE436:
.LBE440:
.LBE450:
.LBB451:
	.loc 1 1178 8 is_stmt 1 view .LVU1321
	.loc 1 1178 14 is_stmt 0 view .LVU1322
	xorl	%eax, %eax
	movl	$9, %edi
	.loc 1 1186 7 view .LVU1323
	movl	%r12d, %r13d
	.loc 1 1178 14 view .LVU1324
	call	exo_new
.LVL454:
	.loc 1 1186 4 is_stmt 1 view .LVU1325
	.loc 1 1187 4 view .LVU1326
.LBB420:
	.loc 1 626 1 view .LVU1327
.LBB418:
	.loc 1 628 3 view .LVU1328
	.loc 1 630 3 view .LVU1329
	.loc 1 630 6 is_stmt 0 view .LVU1330
	movq	%rbx, %rsi
	orq	%rax, %rsi
	jne	.L367
.LVL455:
	.loc 1 631 11 view .LVU1331
	xorl	%ebx, %ebx
.LVL456:
	.loc 1 631 11 view .LVU1332
.LBE418:
.LBE420:
	.loc 1 1190 4 is_stmt 1 view .LVU1333
	.loc 1 1190 8 is_stmt 0 view .LVU1334
	call	yy_nextchar@PLT
.LVL457:
	.loc 1 1190 7 view .LVU1335
	cmpl	$44, %eax
	jne	.L370
	.p2align 4,,10
	.p2align 3
.L438:
	.loc 1 1191 6 is_stmt 1 view .LVU1336
	call	yylex@PLT
.LVL458:
	.loc 1 1192 10 view .LVU1337
	addl	$1, %r12d
.LVL459:
	.loc 1 1192 11 is_stmt 0 view .LVU1338
	call	yy_nextchar@PLT
.LVL460:
	.loc 1 1192 2 view .LVU1339
	cmpl	$93, %eax
	jne	.L364
	jmp	.L372
.LVL461:
	.p2align 4,,10
	.p2align 3
.L447:
	.loc 1 1192 2 view .LVU1340
.LBE451:
.LBB452:
.LBB441:
.LBB437:
	.loc 1 306 13 is_stmt 1 view .LVU1341
	leaq	.LC11(%rip), %rdi
	xorl	%eax, %eax
	leaq	.LC33(%rip), %rcx
	movl	$306, %edx
	leaq	__FUNCTION__.4245(%rip), %rsi
	call	_warn@PLT
.LVL462:
	movq	8(%rsp), %rdi
	movzbl	(%rdi), %eax
	jmp	.L331
.LVL463:
	.p2align 4,,10
	.p2align 3
.L435:
	.loc 1 306 13 is_stmt 0 view .LVU1342
.LBE437:
.LBE441:
.LBE452:
.LBB453:
	.loc 1 1096 7 is_stmt 1 view .LVU1343
	call	yylex@PLT
.LVL464:
	.loc 1 1097 11 view .LVU1344
	addq	$1, %rbx
.LVL465:
	.loc 1 1097 12 is_stmt 0 view .LVU1345
	call	yy_nextchar@PLT
.LVL466:
	.loc 1 1097 3 view .LVU1346
	cmpl	$93, %eax
	jne	.L348
	jmp	.L357
.LVL467:
	.p2align 4,,10
	.p2align 3
.L389:
	.loc 1 1097 3 view .LVU1347
.LBE453:
.LBB454:
.LBB421:
.LBB419:
	movq	%rax, %rbx
.LVL468:
	.loc 1 1097 3 view .LVU1348
	jmp	.L366
.LVL469:
	.p2align 4,,10
	.p2align 3
.L384:
	.loc 1 1097 3 view .LVU1349
.LBE419:
.LBE421:
.LBE454:
.LBB455:
.LBB448:
.LBB447:
	movq	%rax, %rsi
.LVL470:
	.loc 1 1097 3 view .LVU1350
	jmp	.L338
.LVL471:
.L300:
	.loc 1 1097 3 view .LVU1351
.LBE447:
.LBE448:
.LBE455:
.LBB456:
	.loc 1 916 2 is_stmt 1 view .LVU1352
	.loc 1 919 1 view .LVU1353
	.loc 1 919 3 is_stmt 0 view .LVU1354
	call	__errno_location@PLT
.LVL472:
	.loc 1 921 12 view .LVU1355
	leaq	8(%rsp), %rsi
	movl	$10, %edx
	movq	%r12, %rdi
	.loc 1 919 7 view .LVU1356
	movl	$0, (%rax)
	.loc 1 921 2 is_stmt 1 view .LVU1357
	.loc 1 919 3 is_stmt 0 view .LVU1358
	movq	%rax, %rbx
	.loc 1 921 12 view .LVU1359
	call	myatoq@PLT
.LVL473:
	.loc 1 925 5 view .LVU1360
	movl	(%rbx), %r8d
	.loc 1 921 12 view .LVU1361
	movq	%rax, %rsi
.LVL474:
	.loc 1 925 2 is_stmt 1 view .LVU1362
	.loc 1 925 5 is_stmt 0 view .LVU1363
	testl	%r8d, %r8d
	jne	.L319
	.loc 1 925 16 discriminator 1 view .LVU1364
	movq	8(%rsp), %rax
.LVL475:
	.loc 1 925 12 discriminator 1 view .LVU1365
	cmpb	$0, (%rax)
	jne	.L319
	.loc 1 928 6 is_stmt 1 view .LVU1366
	.loc 1 928 12 is_stmt 0 view .LVU1367
	xorl	%edi, %edi
	xorl	%eax, %eax
	call	exo_new
.LVL476:
	.loc 1 928 12 view .LVU1368
	movq	%rax, %r12
.LVL477:
	.loc 1 928 10 view .LVU1369
	jmp	.L294
.LVL478:
	.p2align 4,,10
	.p2align 3
.L328:
	.loc 1 928 10 view .LVU1370
.LBE456:
.LBB457:
.LBB442:
.LBB438:
	.loc 1 316 3 is_stmt 1 view .LVU1371
	.loc 1 316 6 is_stmt 0 view .LVU1372
	movb	$0, (%rbx)
	.loc 1 317 3 is_stmt 1 view .LVU1373
.LVL479:
	.loc 1 317 3 is_stmt 0 view .LVU1374
.LBE438:
.LBE442:
	.loc 1 989 2 is_stmt 1 view .LVU1375
	.loc 1 989 8 is_stmt 0 view .LVU1376
	movq	%rbp, %rsi
	movl	$4, %edi
	xorl	%eax, %eax
	call	exo_new
.LVL480:
	.loc 1 990 2 view .LVU1377
	movq	%rbp, %rdi
	.loc 1 989 8 view .LVU1378
	movq	%rax, %r12
.LVL481:
	.loc 1 990 2 is_stmt 1 view .LVU1379
	call	free@PLT
.LVL482:
	.loc 1 990 2 is_stmt 0 view .LVU1380
.LBE457:
	.loc 1 992 7 is_stmt 1 view .LVU1381
	jmp	.L294
.LVL483:
.L312:
	.loc 1 1040 7 view .LVU1382
	leaq	.LC40(%rip), %rdi
	call	exo_err
.LVL484:
.L315:
	.loc 1 1032 7 view .LVU1383
	leaq	.LC38(%rip), %rdi
	call	exo_err
.LVL485:
.L313:
	.loc 1 1036 7 view .LVU1384
	leaq	.LC39(%rip), %rdi
	call	exo_err
.LVL486:
.L314:
	.loc 1 1160 7 view .LVU1385
	leaq	.LC51(%rip), %rdi
	call	exo_err
.LVL487:
.L296:
	.loc 1 1232 7 view .LVU1386
	leaq	.LC55(%rip), %rcx
	movl	$1232, %edx
	leaq	__FUNCTION__.4473(%rip), %rsi
	xorl	%eax, %eax
	leaq	.LC11(%rip), %rdi
	call	_panic@PLT
.LVL488:
.L309:
	.loc 1 1223 7 view .LVU1387
	leaq	.LC54(%rip), %rdi
	call	exo_err
.LVL489:
.L303:
	.loc 1 999 7 view .LVU1388
	leaq	.LC35(%rip), %rdi
	call	exo_err
.LVL490:
	.p2align 4,,10
	.p2align 3
.L346:
.LBB458:
	.loc 1 1108 6 view .LVU1389
	.loc 1 1108 12 is_stmt 0 view .LVU1390
	xorl	%edx, %edx
	xorl	%eax, %eax
.LVL491:
	.loc 1 1108 12 view .LVU1391
	movl	%ebx, %esi
	movl	$8, %edi
	call	exo_new
.LVL492:
	movq	%rax, %r12
.LVL493:
	.loc 1 1111 6 is_stmt 1 view .LVU1392
	.loc 1 1111 10 is_stmt 0 view .LVU1393
	call	yy_nextchar@PLT
.LVL494:
	.loc 1 1111 9 view .LVU1394
	cmpl	$62, %eax
	je	.L294
	xorl	%ebp, %ebp
.LVL495:
.LBB412:
	.loc 1 1128 20 view .LVU1395
	leaq	8(%rsp), %r13
	jmp	.L363
.LVL496:
	.p2align 4,,10
	.p2align 3
.L450:
	.loc 1 1123 9 is_stmt 1 view .LVU1396
	.loc 1 1123 12 is_stmt 0 view .LVU1397
	cmpl	%ebp, 16(%r12)
	je	.L448
	.loc 1 1127 8 is_stmt 1 view .LVU1398
	.loc 1 1127 10 is_stmt 0 view .LVU1399
	call	__errno_location@PLT
.LVL497:
	.loc 1 1128 20 view .LVU1400
	movq	yytext(%rip), %rdi
	movl	$16, %edx
	movq	%r13, %rsi
	.loc 1 1127 14 view .LVU1401
	movl	$0, (%rax)
	.loc 1 1128 9 is_stmt 1 view .LVU1402
	.loc 1 1127 10 is_stmt 0 view .LVU1403
	movq	%rax, %rbx
	.loc 1 1128 20 view .LVU1404
	call	strtoul@PLT
.LVL498:
	.loc 1 1129 9 is_stmt 1 view .LVU1405
	.loc 1 1129 12 is_stmt 0 view .LVU1406
	movl	(%rbx), %edx
	testl	%edx, %edx
	jne	.L360
	.loc 1 1129 26 discriminator 1 view .LVU1407
	movq	8(%rsp), %rdx
	.loc 1 1129 23 discriminator 1 view .LVU1408
	cmpb	$0, (%rdx)
	jne	.L360
	.loc 1 1131 9 is_stmt 1 view .LVU1409
	.loc 1 1131 12 is_stmt 0 view .LVU1410
	cmpl	$255, %eax
	ja	.L449
	.loc 1 1133 9 is_stmt 1 view .LVU1411
	.loc 1 1133 40 is_stmt 0 view .LVU1412
	movq	24(%r12), %rdx
	movb	%al, (%rdx,%rbp)
	.loc 1 1134 9 is_stmt 1 view .LVU1413
.LVL499:
	.loc 1 1134 9 is_stmt 0 view .LVU1414
	addq	$1, %rbp
.LVL500:
.L363:
	.loc 1 1117 3 is_stmt 1 view .LVU1415
	.loc 1 1119 5 view .LVU1416
	.loc 1 1119 11 is_stmt 0 view .LVU1417
	call	yylex@PLT
.LVL501:
	.loc 1 1121 5 is_stmt 1 view .LVU1418
	.loc 1 1121 8 is_stmt 0 view .LVU1419
	cmpl	$262, %eax
	je	.L450
	.loc 1 1136 10 is_stmt 1 view .LVU1420
	.loc 1 1136 13 is_stmt 0 view .LVU1421
	cmpl	$62, %eax
	je	.L294
	.loc 1 1139 7 is_stmt 1 view .LVU1422
	leaq	.LC48(%rip), %rdi
	call	exo_err
.LVL502:
	.p2align 4,,10
	.p2align 3
.L324:
	.loc 1 1139 7 is_stmt 0 view .LVU1423
.LBE412:
.LBE458:
.LBB459:
.LBB429:
.LBB426:
	.loc 1 222 7 is_stmt 1 view .LVU1424
	.loc 1 222 15 is_stmt 0 view .LVU1425
	leaq	8(%rsp), %rsi
.LVL503:
	.loc 1 222 15 view .LVU1426
	leaq	18(%rsp), %rdi
	call	intern_escape
.LVL504:
	.loc 1 226 3 is_stmt 1 view .LVU1427
	.loc 1 228 3 view .LVU1428
	.loc 1 231 3 view .LVU1429
.LBE426:
.LBE429:
	.loc 1 978 5 is_stmt 0 view .LVU1430
	cmpq	$0, 8(%rsp)
	movzbl	%al, %esi
.LVL505:
	.loc 1 978 2 is_stmt 1 view .LVU1431
	.loc 1 978 5 is_stmt 0 view .LVU1432
	jne	.L326
	.loc 1 979 4 is_stmt 1 view .LVU1433
	leaq	.LC32(%rip), %rdi
	call	exo_err
.LVL506:
	.p2align 4,,10
	.p2align 3
.L441:
	.loc 1 979 4 is_stmt 0 view .LVU1434
.LBE459:
.LBB460:
	.loc 1 1206 25 is_stmt 1 discriminator 1 view .LVU1435
	leaq	__PRETTY_FUNCTION__.4492(%rip), %rcx
	movl	$1206, %edx
	leaq	.LC11(%rip), %rsi
	leaq	.LC53(%rip), %rdi
	call	__assert_fail@PLT
.LVL507:
.L440:
	.loc 1 1215 132 is_stmt 0 discriminator 3 view .LVU1436
	leaq	.LC18(%rip), %rcx
.L427:
	.loc 1 1215 132 discriminator 3 view .LVU1437
	movl	$1215, %edx
	leaq	__FUNCTION__.4473(%rip), %rsi
	leaq	.LC11(%rip), %rdi
	xorl	%eax, %eax
	call	_fatal@PLT
.LVL508:
.L439:
	.loc 1 1215 28 discriminator 1 view .LVU1438
	leaq	.LC20(%rip), %rcx
	jmp	.L427
.LVL509:
.L360:
	.loc 1 1215 28 discriminator 1 view .LVU1439
.LBE460:
.LBB461:
.LBB413:
	.loc 1 1130 4 is_stmt 1 view .LVU1440
	leaq	.LC46(%rip), %rdi
	call	exo_err
.LVL510:
.L449:
	.loc 1 1132 4 view .LVU1441
	leaq	.LC47(%rip), %rcx
	movl	$1132, %edx
	leaq	__FUNCTION__.4473(%rip), %rsi
	xorl	%eax, %eax
.LVL511:
	.loc 1 1132 4 is_stmt 0 view .LVU1442
	leaq	.LC11(%rip), %rdi
	call	_panic@PLT
.LVL512:
.L432:
	.loc 1 1132 4 view .LVU1443
.LBE413:
	.loc 1 1078 7 is_stmt 1 view .LVU1444
	leaq	.LC43(%rip), %rdi
	call	exo_err
.LVL513:
.L434:
	.loc 1 1091 134 is_stmt 0 discriminator 3 view .LVU1445
	leaq	.LC18(%rip), %rcx
.L425:
	.loc 1 1091 134 discriminator 3 view .LVU1446
	movl	$1091, %edx
	leaq	__FUNCTION__.4473(%rip), %rsi
	leaq	.LC11(%rip), %rdi
	xorl	%eax, %eax
.LVL514:
	.loc 1 1091 134 discriminator 3 view .LVU1447
	call	_fatal@PLT
.LVL515:
.L433:
	.loc 1 1091 30 discriminator 1 view .LVU1448
	leaq	.LC20(%rip), %rcx
	jmp	.L425
.LVL516:
.L443:
	.loc 1 1091 30 discriminator 1 view .LVU1449
.LBE461:
.LBB462:
	.loc 1 1210 132 discriminator 3 view .LVU1450
	leaq	.LC18(%rip), %rcx
.L426:
	.loc 1 1210 132 discriminator 3 view .LVU1451
	movl	$1210, %edx
	leaq	__FUNCTION__.4473(%rip), %rsi
	leaq	.LC11(%rip), %rdi
	xorl	%eax, %eax
	call	_fatal@PLT
.LVL517:
.L442:
	.loc 1 1210 28 discriminator 1 view .LVU1452
	leaq	.LC20(%rip), %rcx
	jmp	.L426
.LVL518:
.L429:
	.loc 1 1210 28 discriminator 1 view .LVU1453
.LBE462:
	.loc 1 1236 1 view .LVU1454
	call	__stack_chk_fail@PLT
.LVL519:
.L448:
.LBB463:
.LBB414:
	.loc 1 1124 4 is_stmt 1 view .LVU1455
	leaq	.LC45(%rip), %rdi
	call	exo_err
.LVL520:
.L352:
	.loc 1 1124 4 is_stmt 0 view .LVU1456
.LBE414:
.LBE463:
.LBB464:
	.loc 1 1014 3 is_stmt 1 view .LVU1457
	leaq	.LC36(%rip), %rdi
	call	exo_err
.LVL521:
.L347:
	.loc 1 1014 3 is_stmt 0 view .LVU1458
.LBE464:
.LBB465:
	.loc 1 1150 6 is_stmt 1 view .LVU1459
	leaq	.LC49(%rip), %rdi
	call	exo_err
.LVL522:
.L343:
	.loc 1 1051 4 view .LVU1460
	leaq	.LC41(%rip), %rdi
	call	exo_err
.LVL523:
.L319:
	.loc 1 1051 4 is_stmt 0 view .LVU1461
.LBE465:
.LBB466:
	.loc 1 931 4 is_stmt 1 view .LVU1462
	leaq	.LC28(%rip), %rdi
	call	exo_err
.LVL524:
.L444:
	.loc 1 931 4 is_stmt 0 view .LVU1463
.LBE466:
.LBB467:
.LBB430:
.LBB427:
	.loc 1 215 2 is_stmt 1 view .LVU1464
	leaq	.LC31(%rip), %rcx
	movl	$215, %edx
	leaq	__FUNCTION__.4224(%rip), %rsi
.LVL525:
	.loc 1 215 2 is_stmt 0 view .LVU1465
	xorl	%eax, %eax
	leaq	.LC11(%rip), %rdi
	call	_panic@PLT
.LVL526:
.L436:
	.loc 1 215 2 view .LVU1466
.LBE427:
.LBE430:
.LBE467:
.LBB468:
	.loc 1 1171 4 is_stmt 1 view .LVU1467
	leaq	.LC52(%rip), %rdi
	call	exo_err
.LVL527:
.L322:
	.loc 1 1171 4 is_stmt 0 view .LVU1468
.LBE468:
.LBB469:
.LBB431:
.LBB428:
	.loc 1 209 5 is_stmt 1 view .LVU1469
	leaq	.LC31(%rip), %rcx
	movl	$209, %edx
	leaq	__FUNCTION__.4224(%rip), %rsi
	xorl	%eax, %eax
	leaq	.LC11(%rip), %rdi
	call	_panic@PLT
.LVL528:
.L320:
	.loc 1 209 5 is_stmt 0 view .LVU1470
.LBE428:
.LBE431:
.LBE469:
.LBB470:
	.loc 1 952 4 is_stmt 1 view .LVU1471
	leaq	.LC29(%rip), %rdi
	call	exo_err
.LVL529:
.L431:
	.loc 1 952 4 is_stmt 0 view .LVU1472
.LBE470:
.LBB471:
	.loc 1 1062 4 is_stmt 1 view .LVU1473
	leaq	.LC42(%rip), %rdi
	call	exo_err
.LVL530:
.L321:
	.loc 1 1062 4 is_stmt 0 view .LVU1474
.LBE471:
.LBB472:
	.loc 1 969 4 is_stmt 1 view .LVU1475
	leaq	.LC30(%rip), %rdi
	call	exo_err
.LVL531:
.L445:
	.loc 1 969 4 is_stmt 0 view .LVU1476
.LBE472:
.LBB473:
.LBB443:
.LBB439:
	.loc 1 293 5 is_stmt 1 view .LVU1477
	leaq	.LC31(%rip), %rcx
	movl	$293, %edx
	leaq	__FUNCTION__.4245(%rip), %rsi
	xorl	%eax, %eax
.LVL532:
	.loc 1 293 5 is_stmt 0 view .LVU1478
	leaq	.LC11(%rip), %rdi
	call	_panic@PLT
.LVL533:
.LBE439:
.LBE443:
.LBE473:
	.cfi_endproc
.LFE68:
	.size	exo_read, .-exo_read
	.section	.rodata
	.align 8
	.type	__FUNCTION__.4245, @object
	.size	__FUNCTION__.4245, 14
__FUNCTION__.4245:
	.string	"intern_string"
	.align 8
	.type	__FUNCTION__.4190, @object
	.size	__FUNCTION__.4190, 14
__FUNCTION__.4190:
	.string	"intern_escape"
	.align 8
	.type	__FUNCTION__.4224, @object
	.size	__FUNCTION__.4224, 12
__FUNCTION__.4224:
	.string	"intern_char"
	.align 8
	.type	__PRETTY_FUNCTION__.4492, @object
	.size	__PRETTY_FUNCTION__.4492, 9
__PRETTY_FUNCTION__.4492:
	.string	"exo_read"
	.align 8
	.type	__FUNCTION__.4473, @object
	.size	__FUNCTION__.4473, 9
__FUNCTION__.4473:
	.string	"exo_read"
	.align 8
	.type	__FUNCTION__.4412, @object
	.size	__FUNCTION__.4412, 10
__FUNCTION__.4412:
	.string	"exo_print"
	.align 8
	.type	__FUNCTION__.4388, @object
	.size	__FUNCTION__.4388, 13
__FUNCTION__.4388:
	.string	"exo_deepcopy"
	.align 8
	.type	__FUNCTION__.4362, @object
	.size	__FUNCTION__.4362, 9
__FUNCTION__.4362:
	.string	"exo_copy"
	.align 8
	.type	__PRETTY_FUNCTION__.4347, @object
	.size	__PRETTY_FUNCTION__.4347, 10
__PRETTY_FUNCTION__.4347:
	.string	"exo_chain"
	.align 8
	.type	__FUNCTION__.4337, @object
	.size	__FUNCTION__.4337, 11
__FUNCTION__.4337:
	.string	"exo_delete"
	.align 8
	.type	__FUNCTION__.4283, @object
	.size	__FUNCTION__.4283, 10
__FUNCTION__.4283:
	.string	"exo_alloc"
	.align 8
	.type	__FUNCTION__.4303, @object
	.size	__FUNCTION__.4303, 8
__FUNCTION__.4303:
	.string	"exo_new"
	.align 8
	.type	__FUNCTION__.4273, @object
	.size	__FUNCTION__.4273, 11
__FUNCTION__.4273:
	.string	"exo_intern"
	.comm	token_hash,8192,32
	.data
	.align 4
	.type	token_id, @object
	.size	token_id, 4
token_id:
	.long	1
	.globl	exo_class_str
	.section	.rodata.str1.1
.LC56:
	.string	"integer"
.LC57:
	.string	"address"
.LC58:
	.string	"float"
.LC59:
	.string	"char"
.LC60:
	.string	"stringlist"
.LC61:
	.string	"array"
.LC62:
	.string	"token"
.LC63:
	.string	"blob"
	.section	.data.rel.local,"aw"
	.align 32
	.type	exo_class_str, @object
	.size	exo_class_str, 80
exo_class_str:
	.quad	.LC56
	.quad	.LC57
	.quad	.LC58
	.quad	.LC59
	.quad	.LC60
	.quad	.LC61
	.quad	.LC62
	.quad	.LC63
	.zero	16
	.text
.Letext0:
	.file 4 "/usr/lib/gcc/x86_64-linux-gnu/9/include/stddef.h"
	.file 5 "/usr/lib/gcc/x86_64-linux-gnu/9/include/stdarg.h"
	.file 6 "<built-in>"
	.file 7 "/usr/include/x86_64-linux-gnu/bits/types.h"
	.file 8 "/usr/include/x86_64-linux-gnu/bits/types/struct_FILE.h"
	.file 9 "/usr/include/x86_64-linux-gnu/bits/types/FILE.h"
	.file 10 "/usr/include/stdio.h"
	.file 11 "/usr/include/x86_64-linux-gnu/bits/sys_errlist.h"
	.file 12 "../host.h"
	.file 13 "../misc.h"
	.file 14 "../machine.h"
	.file 15 "libexo.h"
	.file 16 "/usr/include/errno.h"
	.file 17 "/usr/include/stdlib.h"
	.file 18 "/usr/include/assert.h"
	.file 19 "/usr/include/ctype.h"
	.file 20 "/usr/include/string.h"
	.section	.note.GNU-stack,"",@progbits
	.section	.note.gnu.property,"a"
	.align 8
	.long	 1f - 0f
	.long	 4f - 1f
	.long	 5
0:
	.string	 "GNU"
1:
	.align 8
	.long	 0xc0000002
	.long	 3f - 2f
2:
	.long	 0x3
3:
	.align 8
4:
